

Microchip Technology PIC18 LITE Macro Assembler V1.35 build -356382666 
                                                                                               Wed Feb 10 13:48:15 2016

Microchip Technology Omniscient Code Generator v1.35 (Free mode) build 201507080246
     1                           	processor	18F2480
     2                           	fnconf	rparam,??,?,0
     3                           	opt	pw 120
     4                           	opt	lm
     5                           	psect	smallconst,global,reloc=2,class=SMALLCONST,delta=1
     6                           	psect	cinit,global,reloc=2,class=CODE,delta=1
     7                           	psect	bssCOMRAM,global,class=COMRAM,space=1,delta=1
     8                           	psect	cstackCOMRAM,global,class=COMRAM,space=1,delta=1
     9                           	psect	text0,global,reloc=2,class=CODE,delta=1
    10                           	psect	text1,global,reloc=2,class=CODE,delta=1
    11                           	psect	text2,global,reloc=2,class=CODE,delta=1
    12                           	psect	text3,global,reloc=2,class=CODE,delta=1
    13                           	psect	text4,global,reloc=2,class=CODE,delta=1
    14                           	psect	text5,global,reloc=2,class=CODE,delta=1
    15                           	psect	text6,global,reloc=2,class=CODE,delta=1
    16                           	psect	text7,global,reloc=2,class=CODE,delta=1
    17                           	psect	text8,global,reloc=2,class=CODE,delta=1
    18                           	psect	text9,global,reloc=2,class=CODE,delta=1
    19                           	psect	text10,global,reloc=2,class=CODE,delta=1
    20                           	psect	text11,global,reloc=2,class=CODE,delta=1
    21                           	psect	text12,global,reloc=2,class=CODE,delta=1
    22                           	psect	text13,global,reloc=2,class=CODE,delta=1
    23                           	psect	text14,global,reloc=2,class=CODE,delta=1
    24                           	psect	intsave_regs,global,class=BIGRAM,space=1,delta=1
    25                           	psect	rparam,global,class=COMRAM,space=1,delta=1
    26  0000                     _RXFCON0	set	3540
    27  0000                     _RXFCON1	set	3541
    28  0000                     _B0CONbits	set	3616
    29  0000                     _B0D0	set	3622
    30  0000                     _B0D1	set	3623
    31  0000                     _B0D2	set	3624
    32  0000                     _B0D3	set	3625
    33  0000                     _B0D4	set	3626
    34  0000                     _B0D5	set	3627
    35  0000                     _B0D6	set	3628
    36  0000                     _B0D7	set	3629
    37  0000                     _B0DLC	set	3621
    38  0000                     _B0EIDH	set	3619
    39  0000                     _B0EIDL	set	3620
    40  0000                     _B0SIDH	set	3617
    41  0000                     _B0SIDL	set	3618
    42  0000                     _RXB1CON	set	3920
    43  0000                     _RXB1CONbits	set	3920
    44  0000                     _RXB1D0	set	3926
    45  0000                     _RXB1D1	set	3927
    46  0000                     _RXB1D2	set	3928
    47  0000                     _RXB1D3	set	3929
    48  0000                     _RXB1D4	set	3930
    49  0000                     _RXB1D5	set	3931
    50  0000                     _RXB1D6	set	3932
    51  0000                     _RXB1D7	set	3933
    52  0000                     _RXB1DLC	set	3925
    53  0000                     _RXB1EIDH	set	3923
    54  0000                     _RXB1EIDL	set	3924
    55  0000                     _RXB1SIDH	set	3921
    56  0000                     _RXB1SIDL	set	3922
    57  0000                     _RXF0EIDH	set	3842
    58  0000                     _RXF0EIDL	set	3843
    59  0000                     _RXF0SIDH	set	3840
    60  0000                     _RXF0SIDL	set	3841
    61  0000                     _RXF2EIDH	set	3850
    62  0000                     _RXF2EIDL	set	3851
    63  0000                     _RXF2SIDH	set	3848
    64  0000                     _RXF2SIDL	set	3849
    65  0000                     _RXM0EIDH	set	3866
    66  0000                     _RXM0EIDL	set	3867
    67  0000                     _RXM0SIDH	set	3864
    68  0000                     _RXM0SIDL	set	3865
    69  0000                     _RXM1EIDH	set	3870
    70  0000                     _RXM1EIDL	set	3871
    71  0000                     _RXM1SIDH	set	3868
    72  0000                     _RXM1SIDL	set	3869
    73  0000                     _TXB0CONbits	set	3904
    74  0000                     _TXB0D0	set	3910
    75  0000                     _TXB0D1	set	3911
    76  0000                     _TXB0D2	set	3912
    77  0000                     _TXB0D3	set	3913
    78  0000                     _TXB0D4	set	3914
    79  0000                     _TXB0D5	set	3915
    80  0000                     _TXB0D6	set	3916
    81  0000                     _TXB0D7	set	3917
    82  0000                     _TXB0DLC	set	3909
    83  0000                     _TXB0EIDH	set	3907
    84  0000                     _TXB0EIDL	set	3908
    85  0000                     _TXB0SIDH	set	3905
    86  0000                     _TXB0SIDL	set	3906
    87  0000                     _ADCON0	set	4034
    88  0000                     _ADCON0bits	set	4034
    89  0000                     _ADCON1	set	4033
    90  0000                     _ADCON1bits	set	4033
    91  0000                     _ADCON2	set	4032
    92  0000                     _ADRESH	set	4036
    93  0000                     _ADRESL	set	4035
    94  0000                     _BAUDCONbits	set	4024
    95  0000                     _BRGCON1	set	3952
    96  0000                     _BRGCON2	set	3953
    97  0000                     _BRGCON3	set	3954
    98  0000                     _CANCON	set	3951
    99  0000                     _CANSTAT	set	3950
   100  0000                     _CIOCONbits	set	3955
   101  0000                     _ECANCON	set	3959
   102  0000                     _LATAbits	set	3977
   103  0000                     _OSCCONbits	set	4051
   104  0000                     _OSCTUNEbits	set	3995
   105  0000                     _RCSTAbits	set	4011
   106  0000                     _RXB0CON	set	3936
   107  0000                     _RXB0CONbits	set	3936
   108  0000                     _RXB0D0	set	3942
   109  0000                     _RXB0D1	set	3943
   110  0000                     _RXB0D2	set	3944
   111  0000                     _RXB0D3	set	3945
   112  0000                     _RXB0D4	set	3946
   113  0000                     _RXB0D5	set	3947
   114  0000                     _RXB0D6	set	3948
   115  0000                     _RXB0D7	set	3949
   116  0000                     _RXB0DLC	set	3941
   117  0000                     _RXB0EIDH	set	3939
   118  0000                     _RXB0EIDL	set	3940
   119  0000                     _RXB0SIDH	set	3937
   120  0000                     _RXB0SIDL	set	3938
   121  0000                     _SPBRG	set	4015
   122  0000                     _TRISAbits	set	3986
   123  0000                     _TRISBbits	set	3987
   124  0000                     _TRISCbits	set	3988
   125  0000                     _TXREG	set	4013
   126  0000                     _TXSTAbits	set	4012
   127  0000                     _RXB1IF	set	32033
   128                           
   129                           	psect	smallconst
   130  000300                     __psmallconst:
   131                           	opt stack 0
   132  000300  00                 	db	0
   133  000301                     STR_2:
   134  000301  48                 	db	72	;'H'
   135  000302  65                 	db	101	;'e'
   136  000303  6C                 	db	108	;'l'
   137  000304  6C                 	db	108	;'l'
   138  000305  6F                 	db	111	;'o'
   139  000306  20                 	db	32
   140  000307  66                 	db	102	;'f'
   141  000308  72                 	db	114	;'r'
   142  000309  6F                 	db	111	;'o'
   143  00030A  6D                 	db	109	;'m'
   144  00030B  20                 	db	32
   145  00030C  43                 	db	67	;'C'
   146  00030D  6F                 	db	111	;'o'
   147  00030E  72                 	db	114	;'r'
   148  00030F  6E                 	db	110	;'n'
   149  000310  65                 	db	101	;'e'
   150  000311  6C                 	db	108	;'l'
   151  000312  6C                 	db	108	;'l'
   152  000313  20                 	db	32
   153  000314  43                 	db	67	;'C'
   154  000315  75                 	db	117	;'u'
   155  000316  70                 	db	112	;'p'
   156  000317  21                 	db	33
   157  000318  0A                 	db	10
   158  000319  0D                 	db	13
   159  00031A  00                 	db	0
   160  00031B                     STR_1:
   161  00031B  1B                 	db	27
   162  00031C  5B                 	db	91	;'['
   163  00031D  32                 	db	50	;'2'
   164  00031E  4A                 	db	74	;'J'
   165  00031F  00                 	db	0
   166                           
   167                           ; #config settings
   168  000320  00                 	db	0	; dummy byte at the end
   169  0000                     
   170                           	psect	cinit
   171  000924                     __pcinit:
   172                           	opt stack 0
   173  000924                     start_initialization:
   174                           	opt stack 0
   175  000924                     __initialization:
   176                           	opt stack 0
   177                           
   178                           ; Clear objects allocated to COMRAM (20 bytes)
   179  000924  EE00  F034         	lfsr	0,__pbssCOMRAM
   180  000928  0E14               	movlw	20
   181  00092A                     clear_0:
   182  00092A  6AEE               	clrf	postinc0,c
   183  00092C  06E8               	decf	wreg,f,c
   184  00092E  E1FD               	bnz	clear_0
   185  000930                     end_of_initialization:
   186                           	opt stack 0
   187  000930                     __end_of__initialization:
   188                           	opt stack 0
   189  000930  0E00               	movlw	low (__Lsmallconst shr (0+16))
   190  000932  6EF8               	movwf	tblptru,c
   191  000934  0E03               	movlw	high __Lsmallconst
   192  000936  6EF7               	movwf	tblptrh,c
   193  000938  0100               	movlb	0
   194  00093A  EF85  F002         	goto	_main	;jump to C main() function
   195                           tblptru	equ	0xFF8
   196                           tblptrh	equ	0xFF7
   197                           postinc0	equ	0xFEE
   198                           wreg	equ	0xFE8
   199                           
   200                           	psect	bssCOMRAM
   201  000034                     __pbssCOMRAM:
   202                           	opt stack 0
   203  000034                     _heartbeatCount:
   204                           	opt stack 0
   205  000034                     	ds	2
   206  000036                     _CAN_RX_Adress_H:
   207                           	opt stack 0
   208  000036                     	ds	1
   209  000037                     _CAN_RX_Adress_L:
   210                           	opt stack 0
   211  000037                     	ds	1
   212  000038                     _CAN_TX_Adress_H:
   213                           	opt stack 0
   214  000038                     	ds	1
   215  000039                     _CAN_TX_Adress_L:
   216                           	opt stack 0
   217  000039                     	ds	1
   218  00003A                     _temp_D0:
   219                           	opt stack 0
   220  00003A                     	ds	1
   221  00003B                     _temp_D1:
   222                           	opt stack 0
   223  00003B                     	ds	1
   224  00003C                     _temp_D2:
   225                           	opt stack 0
   226  00003C                     	ds	1
   227  00003D                     _temp_D3:
   228                           	opt stack 0
   229  00003D                     	ds	1
   230  00003E                     _temp_D4:
   231                           	opt stack 0
   232  00003E                     	ds	1
   233  00003F                     _temp_D5:
   234                           	opt stack 0
   235  00003F                     	ds	1
   236  000040                     _temp_D6:
   237                           	opt stack 0
   238  000040                     	ds	1
   239  000041                     _temp_D7:
   240                           	opt stack 0
   241  000041                     	ds	1
   242  000042                     _temp_DLC:
   243                           	opt stack 0
   244  000042                     	ds	1
   245  000043                     _temp_EIDH:
   246                           	opt stack 0
   247  000043                     	ds	1
   248  000044                     _temp_EIDL:
   249                           	opt stack 0
   250  000044                     	ds	1
   251  000045                     _temp_SIDH:
   252                           	opt stack 0
   253  000045                     	ds	1
   254  000046                     _temp_SIDL:
   255                           	opt stack 0
   256  000046                     	ds	1
   257  000047                     _temperature:
   258                           	opt stack 0
   259  000047                     	ds	1
   260                           tblptru	equ	0xFF8
   261                           tblptrh	equ	0xFF7
   262                           postinc0	equ	0xFEE
   263                           wreg	equ	0xFE8
   264                           
   265                           	psect	cstackCOMRAM
   266  000001                     __pcstackCOMRAM:
   267                           	opt stack 0
   268  000001                     ?_adc_read_sensor:
   269                           	opt stack 0
   270  000001                     ?___ftpack:
   271                           	opt stack 0
   272  000001                     ?___fttol:
   273                           	opt stack 0
   274  000001                     putch@byte:
   275                           	opt stack 0
   276  000001                     Delay@count:
   277                           	opt stack 0
   278  000001                     ___ftpack@arg:
   279                           	opt stack 0
   280  000001                     ___fttol@f1:
   281                           	opt stack 0
   282                           
   283                           ; 3 bytes @ 0x0
   284  000001                     	ds	1
   285  000002                     ?_printf:
   286                           	opt stack 0
   287  000002                     printf@f:
   288                           	opt stack 0
   289                           
   290                           ; 2 bytes @ 0x1
   291  000002                     	ds	1
   292  000003                     ??_adc_read_sensor:
   293  000003                     
   294                           ; 0 bytes @ 0x2
   295  000003                     	ds	1
   296  000004                     ___ftpack@exp:
   297                           	opt stack 0
   298  000004                     printf@ap:
   299                           	opt stack 0
   300                           
   301                           ; 2 bytes @ 0x3
   302  000004                     	ds	1
   303  000005                     ??___fttol:
   304  000005                     ___ftpack@sign:
   305                           	opt stack 0
   306  000005                     adc_read_sensor@result:
   307                           	opt stack 0
   308                           
   309                           ; 2 bytes @ 0x4
   310  000005                     	ds	1
   311  000006                     ??___ftpack:
   312  000006                     printf@c:
   313                           	opt stack 0
   314                           
   315                           ; 1 bytes @ 0x5
   316  000006                     	ds	3
   317  000009                     ?___lwtoft:
   318                           	opt stack 0
   319  000009                     ___lwtoft@c:
   320                           	opt stack 0
   321                           
   322                           ; 2 bytes @ 0x8
   323  000009                     	ds	1
   324  00000A                     ___fttol@sign1:
   325                           	opt stack 0
   326                           
   327                           ; 1 bytes @ 0x9
   328  00000A                     	ds	1
   329  00000B                     ___fttol@lval:
   330                           	opt stack 0
   331                           
   332                           ; 4 bytes @ 0xA
   333  00000B                     	ds	1
   334  00000C                     ?___ftmul:
   335                           	opt stack 0
   336  00000C                     ___ftmul@f1:
   337                           	opt stack 0
   338                           
   339                           ; 3 bytes @ 0xB
   340  00000C                     	ds	3
   341  00000F                     ___fttol@exp1:
   342                           	opt stack 0
   343  00000F                     ___ftmul@f2:
   344                           	opt stack 0
   345                           
   346                           ; 3 bytes @ 0xE
   347  00000F                     	ds	3
   348  000012                     ??___ftmul:
   349                           
   350                           ; 0 bytes @ 0x11
   351  000012                     	ds	3
   352  000015                     ___ftmul@exp:
   353                           	opt stack 0
   354                           
   355                           ; 1 bytes @ 0x14
   356  000015                     	ds	1
   357  000016                     ___ftmul@f3_as_product:
   358                           	opt stack 0
   359                           
   360                           ; 3 bytes @ 0x15
   361  000016                     	ds	3
   362  000019                     ___ftmul@cntr:
   363                           	opt stack 0
   364                           
   365                           ; 1 bytes @ 0x18
   366  000019                     	ds	1
   367  00001A                     ___ftmul@sign:
   368                           	opt stack 0
   369                           
   370                           ; 1 bytes @ 0x19
   371  00001A                     	ds	1
   372  00001B                     ?___ftdiv:
   373                           	opt stack 0
   374  00001B                     ___ftdiv@f1:
   375                           	opt stack 0
   376                           
   377                           ; 3 bytes @ 0x1A
   378  00001B                     	ds	3
   379  00001E                     ___ftdiv@f2:
   380                           	opt stack 0
   381                           
   382                           ; 3 bytes @ 0x1D
   383  00001E                     	ds	3
   384  000021                     ??___ftdiv:
   385                           
   386                           ; 0 bytes @ 0x20
   387  000021                     	ds	3
   388  000024                     ___ftdiv@cntr:
   389                           	opt stack 0
   390                           
   391                           ; 1 bytes @ 0x23
   392  000024                     	ds	1
   393  000025                     ___ftdiv@f3:
   394                           	opt stack 0
   395                           
   396                           ; 3 bytes @ 0x24
   397  000025                     	ds	3
   398  000028                     ___ftdiv@exp:
   399                           	opt stack 0
   400                           
   401                           ; 1 bytes @ 0x27
   402  000028                     	ds	1
   403  000029                     ___ftdiv@sign:
   404                           	opt stack 0
   405                           
   406                           ; 1 bytes @ 0x28
   407  000029                     	ds	1
   408  00002A                     main@voltage:
   409                           	opt stack 0
   410                           
   411                           ; 3 bytes @ 0x29
   412  00002A                     	ds	3
   413  00002D                     main@temp:
   414                           	opt stack 0
   415                           
   416                           ; 3 bytes @ 0x2C
   417  00002D                     	ds	3
   418  000030                     main@ADR:
   419                           	opt stack 0
   420                           
   421                           ; 2 bytes @ 0x2F
   422  000030                     	ds	2
   423  000032                     main@i:
   424                           	opt stack 0
   425                           
   426                           ; 2 bytes @ 0x31
   427  000032                     	ds	2
   428                           tblptru	equ	0xFF8
   429                           tblptrh	equ	0xFF7
   430                           postinc0	equ	0xFEE
   431                           wreg	equ	0xFE8
   432                           
   433 ;;
   434 ;;Main: autosize = 0, tempsize = 0, incstack = 0, save=0
   435 ;;
   436 ;; *************** function _main *****************
   437 ;; Defined at:
   438 ;;		line 76 in file "main.c"
   439 ;; Parameters:    Size  Location     Type
   440 ;;		None
   441 ;; Auto vars:     Size  Location     Type
   442 ;;  temp            3   44[COMRAM] float 
   443 ;;  voltage         3   41[COMRAM] float 
   444 ;;  i               2   49[COMRAM] int 
   445 ;;  ADR             2   47[COMRAM] unsigned int 
   446 ;; Return value:  Size  Location     Type
   447 ;;		None               void
   448 ;; Registers used:
   449 ;;		wreg, status,2, status,0, tblptrl, tblptrh, tblptru, cstack
   450 ;; Tracked objects:
   451 ;;		On entry : 0/0
   452 ;;		On exit  : 0/0
   453 ;;		Unchanged: 0/0
   454 ;; Data sizes:     COMRAM   BANK0   BANK1   BANK2
   455 ;;      Params:         0       0       0       0
   456 ;;      Locals:        10       0       0       0
   457 ;;      Temps:          0       0       0       0
   458 ;;      Totals:        10       0       0       0
   459 ;;Total ram usage:       10 bytes
   460 ;; Hardware stack levels required when called:    2
   461 ;; This function calls:
   462 ;;		_Delay
   463 ;;		_ECAN_Transmit
   464 ;;		_InitDevice
   465 ;;		___ftdiv
   466 ;;		___ftmul
   467 ;;		___fttol
   468 ;;		___lwtoft
   469 ;;		_adc_read_sensor
   470 ;;		_printf
   471 ;;		_putch
   472 ;; This function is called by:
   473 ;;		Startup code after reset
   474 ;; This function uses a non-reentrant model
   475 ;;
   476                           
   477                           	psect	text0
   478  00050A                     __ptext0:
   479                           	opt stack 0
   480  00050A                     _main:
   481                           	opt stack 29
   482                           
   483                           ;main.c: 78: InitDevice();
   484                           
   485                           ;incstack = 0
   486  00050A  EC42  F004         	call	_InitDevice	;wreg free
   487                           
   488                           ;main.c: 79: LATAbits.LATA0 = 1;
   489  00050E  8089               	bsf	3977,0,c	;volatile
   490                           
   491                           ;main.c: 81: printf( "\x1b[2J");
   492  000510  0E1B               	movlw	low STR_1
   493  000512  6E02               	movwf	printf@f,c
   494  000514  0E03               	movlw	high STR_1
   495  000516  6E03               	movwf	printf@f+1,c
   496  000518  EC58  F004         	call	_printf	;wreg free
   497                           
   498                           ;main.c: 82: {putch(0x0a); putch(0x0d);};
   499  00051C  0E0A               	movlw	10
   500  00051E  ECB9  F004         	call	_putch
   501  000522  0E0D               	movlw	13
   502  000524  ECB9  F004         	call	_putch
   503                           
   504                           ;main.c: 83: printf("Hello from Cornell Cup!\n\r");
   505  000528  0E01               	movlw	low STR_2
   506  00052A  6E02               	movwf	printf@f,c
   507  00052C  0E03               	movlw	high STR_2
   508  00052E  6E03               	movwf	printf@f+1,c
   509  000530  EC58  F004         	call	_printf	;wreg free
   510  000534                     l1465:
   511                           
   512                           ;main.c: 86: {
   513                           ;main.c: 87: unsigned int ADR;
   514                           ;main.c: 88: float voltage;
   515                           ;main.c: 89: float temp;
   516                           ;main.c: 92: ADR = adc_read_sensor();
   517  000534  EC6D  F004         	call	_adc_read_sensor	;wreg free
   518  000538  C001  F030         	movff	?_adc_read_sensor,main@ADR
   519  00053C  C002  F031         	movff	?_adc_read_sensor+1,main@ADR+1
   520                           
   521                           ;main.c: 96: voltage = (float)ADR*5.0/1024.0;
   522  000540  0E00               	movlw	0
   523  000542  6E0F               	movwf	___ftmul@f2,c
   524  000544  0EA0               	movlw	160
   525  000546  6E10               	movwf	___ftmul@f2+1,c
   526  000548  0E40               	movlw	64
   527  00054A  6E11               	movwf	___ftmul@f2+2,c
   528  00054C  C030  F009         	movff	main@ADR,___lwtoft@c
   529  000550  C031  F00A         	movff	main@ADR+1,___lwtoft@c+1
   530  000554  EC80  F004         	call	___lwtoft	;wreg free
   531  000558  C009  F00C         	movff	?___lwtoft,___ftmul@f1
   532  00055C  C00A  F00D         	movff	?___lwtoft+1,___ftmul@f1+1
   533  000560  C00B  F00E         	movff	?___lwtoft+2,___ftmul@f1+2
   534  000564  EC0B  F002         	call	___ftmul	;wreg free
   535  000568  C00C  F01B         	movff	?___ftmul,___ftdiv@f1
   536  00056C  C00D  F01C         	movff	?___ftmul+1,___ftdiv@f1+1
   537  000570  C00E  F01D         	movff	?___ftmul+2,___ftdiv@f1+2
   538  000574  0E00               	movlw	0
   539  000576  6E1E               	movwf	___ftdiv@f2,c
   540  000578  0E80               	movlw	128
   541  00057A  6E1F               	movwf	___ftdiv@f2+1,c
   542  00057C  0E44               	movlw	68
   543  00057E  6E20               	movwf	___ftdiv@f2+2,c
   544  000580  ECFD  F002         	call	___ftdiv	;wreg free
   545  000584  C01B  F02A         	movff	?___ftdiv,main@voltage
   546  000588  C01C  F02B         	movff	?___ftdiv+1,main@voltage+1
   547  00058C  C01D  F02C         	movff	?___ftdiv+2,main@voltage+2
   548                           
   549                           ;main.c: 97: temp = voltage / 0.01;
   550  000590  C02A  F01B         	movff	main@voltage,___ftdiv@f1
   551  000594  C02B  F01C         	movff	main@voltage+1,___ftdiv@f1+1
   552  000598  C02C  F01D         	movff	main@voltage+2,___ftdiv@f1+2
   553  00059C  0ED7               	movlw	215
   554  00059E  6E1E               	movwf	___ftdiv@f2,c
   555  0005A0  0E23               	movlw	35
   556  0005A2  6E1F               	movwf	___ftdiv@f2+1,c
   557  0005A4  0E3C               	movlw	60
   558  0005A6  6E20               	movwf	___ftdiv@f2+2,c
   559  0005A8  ECFD  F002         	call	___ftdiv	;wreg free
   560  0005AC  C01B  F02D         	movff	?___ftdiv,main@temp
   561  0005B0  C01C  F02E         	movff	?___ftdiv+1,main@temp+1
   562  0005B4  C01D  F02F         	movff	?___ftdiv+2,main@temp+2
   563                           
   564                           ;main.c: 98: temperature = temp;
   565  0005B8  C02D  F001         	movff	main@temp,___fttol@f1
   566  0005BC  C02E  F002         	movff	main@temp+1,___fttol@f1+1
   567  0005C0  C02F  F003         	movff	main@temp+2,___fttol@f1+2
   568  0005C4  EC91  F001         	call	___fttol	;wreg free
   569  0005C8  5001               	movf	?___fttol,w,c
   570  0005CA  6E47               	movwf	_temperature,c
   571                           
   572                           ;main.c: 101: ECAN_Transmit();
   573  0005CC  EC13  F004         	call	_ECAN_Transmit	;wreg free
   574                           
   575                           ;main.c: 105: int i;
   576                           ;main.c: 106: for (i=0; i<500; i++){
   577  0005D0  0E00               	movlw	0
   578  0005D2  6E33               	movwf	main@i+1,c
   579  0005D4  0E00               	movlw	0
   580  0005D6  6E32               	movwf	main@i,c
   581  0005D8                     l1475:
   582  0005D8  BE33               	btfsc	main@i+1,7,c
   583  0005DA  D006               	goto	l1479
   584  0005DC  0EF4               	movlw	244
   585  0005DE  5C32               	subwf	main@i,w,c
   586  0005E0  0E01               	movlw	1
   587  0005E2  5833               	subwfb	main@i+1,w,c
   588  0005E4  B0D8               	btfsc	status,0,c
   589  0005E6  D7A6               	goto	l1465
   590  0005E8                     l1479:
   591                           
   592                           ;main.c: 107: Delay(666);
   593  0005E8  0E02               	movlw	2
   594  0005EA  6E02               	movwf	Delay@count+1,c
   595  0005EC  0E9A               	movlw	154
   596  0005EE  6E01               	movwf	Delay@count,c
   597  0005F0  ECA9  F004         	call	_Delay	;wreg free
   598  0005F4  4A32               	infsnz	main@i,f,c
   599  0005F6  2A33               	incf	main@i+1,f,c
   600  0005F8  D7EF               	goto	l1475
   601  0005FA                     __end_of_main:
   602                           	opt stack 0
   603                           tblptru	equ	0xFF8
   604                           tblptrh	equ	0xFF7
   605                           postinc0	equ	0xFEE
   606                           wreg	equ	0xFE8
   607                           status	equ	0xFD8
   608                           
   609 ;; *************** function _printf *****************
   610 ;; Defined at:
   611 ;;		line 464 in file "C:\Program Files (x86)\Microchip\xc8\v1.35\sources\common\doprnt.c"
   612 ;; Parameters:    Size  Location     Type
   613 ;;  f               2    1[COMRAM] PTR const unsigned char 
   614 ;;		 -> STR_2(26), STR_1(5), 
   615 ;; Auto vars:     Size  Location     Type
   616 ;;  tmpval          4    0        struct .
   617 ;;  cp              3    0        PTR const unsigned char 
   618 ;;  ap              2    3[COMRAM] PTR void [1]
   619 ;;		 -> ?_printf(2), 
   620 ;;  len             2    0        unsigned int 
   621 ;;  val             2    0        unsigned int 
   622 ;;  c               1    5[COMRAM] char 
   623 ;;  flag            1    0        unsigned char 
   624 ;;  prec            1    0        char 
   625 ;; Return value:  Size  Location     Type
   626 ;;                  2    1[COMRAM] int 
   627 ;; Registers used:
   628 ;;		wreg, status,2, status,0, tblptrl, tblptrh, tblptru, cstack
   629 ;; Tracked objects:
   630 ;;		On entry : 0/0
   631 ;;		On exit  : 0/0
   632 ;;		Unchanged: 0/0
   633 ;; Data sizes:     COMRAM   BANK0   BANK1   BANK2
   634 ;;      Params:         2       0       0       0
   635 ;;      Locals:         3       0       0       0
   636 ;;      Temps:          0       0       0       0
   637 ;;      Totals:         5       0       0       0
   638 ;;Total ram usage:        5 bytes
   639 ;; Hardware stack levels used:    1
   640 ;; Hardware stack levels required when called:    1
   641 ;; This function calls:
   642 ;;		_putch
   643 ;; This function is called by:
   644 ;;		_main
   645 ;; This function uses a non-reentrant model
   646 ;;
   647                           
   648                           	psect	text1
   649  0008B0                     __ptext1:
   650                           	opt stack 0
   651  0008B0                     _printf:
   652                           	opt stack 29
   653                           
   654                           ;doprnt.c: 466: va_list ap;
   655                           ;doprnt.c: 499: signed char c;
   656                           ;doprnt.c: 506: signed char prec;
   657                           ;doprnt.c: 508: unsigned char flag;
   658                           ;doprnt.c: 523: union {
   659                           ;doprnt.c: 524: unsigned long vd;
   660                           ;doprnt.c: 525: double integ;
   661                           ;doprnt.c: 526: } tmpval;
   662                           ;doprnt.c: 528: unsigned int val;
   663                           ;doprnt.c: 529: unsigned len;
   664                           ;doprnt.c: 530: const char * cp;
   665                           ;doprnt.c: 533: *ap = __va_start();
   666                           
   667                           ;incstack = 0
   668  0008B0  0E04               	movlw	low (?_printf+2)
   669  0008B2  6E04               	movwf	printf@ap,c
   670  0008B4  0E00               	movlw	high (?_printf+2)
   671  0008B6  6E05               	movwf	printf@ap+1,c
   672                           
   673                           ;doprnt.c: 536: while(c = *f++) {
   674  0008B8  D003               	goto	l1295
   675  0008BA                     l1293:
   676                           
   677                           ;doprnt.c: 540: {
   678                           ;doprnt.c: 541: (putch(c) );
   679  0008BA  5006               	movf	printf@c,w,c
   680  0008BC  ECB9  F004         	call	_putch
   681  0008C0                     l1295:
   682  0008C0  C002  FFF6         	movff	printf@f,tblptrl
   683  0008C4  C003  FFF7         	movff	printf@f+1,tblptrh
   684  0008C8  4A02               	infsnz	printf@f,f,c
   685  0008CA  2A03               	incf	printf@f+1,f,c
   686  0008CC                     	if	0	;tblptru may be non-zero
   687  0008CC                     	endif
   688  0008CC                     	if	0	;tblptru may be non-zero
   689  0008CC                     	endif
   690  0008CC  0008               	tblrd		*
   691  0008CE  CFF5 F006          	movff	tablat,printf@c
   692  0008D2  5006               	movf	printf@c,w,c
   693  0008D4  B4D8               	btfsc	status,2,c
   694  0008D6  0012               	return	
   695  0008D8  D7F0               	goto	l1293
   696  0008DA                     __end_of_printf:
   697                           	opt stack 0
   698                           tblptru	equ	0xFF8
   699                           tblptrh	equ	0xFF7
   700                           tblptrl	equ	0xFF6
   701                           tablat	equ	0xFF5
   702                           postinc0	equ	0xFEE
   703                           wreg	equ	0xFE8
   704                           status	equ	0xFD8
   705                           
   706 ;; *************** function _putch *****************
   707 ;; Defined at:
   708 ;;		line 220 in file "main.c"
   709 ;; Parameters:    Size  Location     Type
   710 ;;  byte            1    wreg     unsigned char 
   711 ;; Auto vars:     Size  Location     Type
   712 ;;  byte            1    0[COMRAM] unsigned char 
   713 ;; Return value:  Size  Location     Type
   714 ;;		None               void
   715 ;; Registers used:
   716 ;;		wreg
   717 ;; Tracked objects:
   718 ;;		On entry : 0/0
   719 ;;		On exit  : 0/0
   720 ;;		Unchanged: 0/0
   721 ;; Data sizes:     COMRAM   BANK0   BANK1   BANK2
   722 ;;      Params:         0       0       0       0
   723 ;;      Locals:         1       0       0       0
   724 ;;      Temps:          0       0       0       0
   725 ;;      Totals:         1       0       0       0
   726 ;;Total ram usage:        1 bytes
   727 ;; Hardware stack levels used:    1
   728 ;; This function calls:
   729 ;;		Nothing
   730 ;; This function is called by:
   731 ;;		_main
   732 ;;		_printf
   733 ;; This function uses a non-reentrant model
   734 ;;
   735                           
   736                           	psect	text2
   737  000972                     __ptext2:
   738                           	opt stack 0
   739  000972                     _putch:
   740                           	opt stack 30
   741                           
   742                           ;incstack = 0
   743                           ;putch@byte stored from wreg
   744  000972  6E01               	movwf	putch@byte,c
   745                           
   746                           ;main.c: 221: TXREG = byte;
   747  000974  C001  FFAD         	movff	putch@byte,4013	;volatile
   748  000978                     l305:
   749  000978  B2AC               	btfsc	4012,1,c	;volatile
   750  00097A  0012               	return	
   751  00097C  D7FD               	goto	l305
   752  00097E                     __end_of_putch:
   753                           	opt stack 0
   754                           tblptru	equ	0xFF8
   755                           tblptrh	equ	0xFF7
   756                           tblptrl	equ	0xFF6
   757                           tablat	equ	0xFF5
   758                           postinc0	equ	0xFEE
   759                           wreg	equ	0xFE8
   760                           status	equ	0xFD8
   761                           
   762 ;; *************** function _adc_read_sensor *****************
   763 ;; Defined at:
   764 ;;		line 232 in file "main.c"
   765 ;; Parameters:    Size  Location     Type
   766 ;;		None
   767 ;; Auto vars:     Size  Location     Type
   768 ;;  result          2    4[COMRAM] unsigned int 
   769 ;; Return value:  Size  Location     Type
   770 ;;                  2    0[COMRAM] unsigned int 
   771 ;; Registers used:
   772 ;;		wreg, status,2, status,0
   773 ;; Tracked objects:
   774 ;;		On entry : 0/0
   775 ;;		On exit  : 0/0
   776 ;;		Unchanged: 0/0
   777 ;; Data sizes:     COMRAM   BANK0   BANK1   BANK2
   778 ;;      Params:         2       0       0       0
   779 ;;      Locals:         2       0       0       0
   780 ;;      Temps:          2       0       0       0
   781 ;;      Totals:         6       0       0       0
   782 ;;Total ram usage:        6 bytes
   783 ;; Hardware stack levels used:    1
   784 ;; This function calls:
   785 ;;		Nothing
   786 ;; This function is called by:
   787 ;;		_main
   788 ;; This function uses a non-reentrant model
   789 ;;
   790                           
   791                           	psect	text3
   792  0008DA                     __ptext3:
   793                           	opt stack 0
   794  0008DA                     _adc_read_sensor:
   795                           	opt stack 30
   796                           
   797                           ;main.c: 233: ADCON0bits.GO = 1;
   798                           
   799                           ;incstack = 0
   800  0008DA  82C2               	bsf	4034,1,c	;volatile
   801  0008DC                     l314:
   802  0008DC  B2C2               	btfsc	4034,1,c	;volatile
   803  0008DE  D7FE               	goto	l314
   804                           
   805                           ;main.c: 235: unsigned int result = (ADRESH << 8) | ADRESL;
   806  0008E0  50C3               	movf	4035,w,c	;volatile
   807  0008E2  CFC4 F003          	movff	4036,??_adc_read_sensor	;volatile
   808  0008E6  6A04               	clrf	(??_adc_read_sensor+1)& (0+255),c
   809  0008E8  C003  F004         	movff	??_adc_read_sensor,??_adc_read_sensor+1
   810  0008EC  6A03               	clrf	??_adc_read_sensor,c
   811  0008EE  1003               	iorwf	??_adc_read_sensor,w,c
   812  0008F0  6E05               	movwf	adc_read_sensor@result,c
   813  0008F2  5004               	movf	??_adc_read_sensor+1,w,c
   814  0008F4  6E06               	movwf	adc_read_sensor@result+1,c
   815                           
   816                           ;main.c: 236: return result;
   817  0008F6  C005  F001         	movff	adc_read_sensor@result,?_adc_read_sensor
   818  0008FA  C006  F002         	movff	adc_read_sensor@result+1,?_adc_read_sensor+1
   819  0008FE  0012               	return	
   820  000900                     __end_of_adc_read_sensor:
   821                           	opt stack 0
   822                           tblptru	equ	0xFF8
   823                           tblptrh	equ	0xFF7
   824                           tblptrl	equ	0xFF6
   825                           tablat	equ	0xFF5
   826                           postinc0	equ	0xFEE
   827                           wreg	equ	0xFE8
   828                           status	equ	0xFD8
   829                           
   830 ;; *************** function ___lwtoft *****************
   831 ;; Defined at:
   832 ;;		line 28 in file "C:\Program Files (x86)\Microchip\xc8\v1.35\sources\common\lwtoft.c"
   833 ;; Parameters:    Size  Location     Type
   834 ;;  c               2    8[COMRAM] unsigned int 
   835 ;; Auto vars:     Size  Location     Type
   836 ;;		None
   837 ;; Return value:  Size  Location     Type
   838 ;;                  3    8[COMRAM] float 
   839 ;; Registers used:
   840 ;;		wreg, status,2, status,0, cstack
   841 ;; Tracked objects:
   842 ;;		On entry : 0/0
   843 ;;		On exit  : 0/0
   844 ;;		Unchanged: 0/0
   845 ;; Data sizes:     COMRAM   BANK0   BANK1   BANK2
   846 ;;      Params:         3       0       0       0
   847 ;;      Locals:         0       0       0       0
   848 ;;      Temps:          0       0       0       0
   849 ;;      Totals:         3       0       0       0
   850 ;;Total ram usage:        3 bytes
   851 ;; Hardware stack levels used:    1
   852 ;; Hardware stack levels required when called:    1
   853 ;; This function calls:
   854 ;;		___ftpack
   855 ;; This function is called by:
   856 ;;		_main
   857 ;; This function uses a non-reentrant model
   858 ;;
   859                           
   860                           	psect	text4
   861  000900                     __ptext4:
   862                           	opt stack 0
   863  000900                     ___lwtoft:
   864                           	opt stack 29
   865                           
   866                           ;incstack = 0
   867  000900  C009  F001         	movff	___lwtoft@c,___ftpack@arg
   868  000904  C00A  F002         	movff	___lwtoft@c+1,___ftpack@arg+1
   869  000908  6A03               	clrf	___ftpack@arg+2,c
   870  00090A  0E8E               	movlw	142
   871  00090C  6E04               	movwf	___ftpack@exp,c
   872  00090E  0E00               	movlw	0
   873  000910  6E05               	movwf	___ftpack@sign,c
   874  000912  EC70  F003         	call	___ftpack	;wreg free
   875  000916  C001  F009         	movff	?___ftpack,?___lwtoft
   876  00091A  C002  F00A         	movff	?___ftpack+1,?___lwtoft+1
   877  00091E  C003  F00B         	movff	?___ftpack+2,?___lwtoft+2
   878  000922  0012               	return	
   879  000924                     __end_of___lwtoft:
   880                           	opt stack 0
   881                           tblptru	equ	0xFF8
   882                           tblptrh	equ	0xFF7
   883                           tblptrl	equ	0xFF6
   884                           tablat	equ	0xFF5
   885                           postinc0	equ	0xFEE
   886                           wreg	equ	0xFE8
   887                           status	equ	0xFD8
   888                           
   889 ;; *************** function ___fttol *****************
   890 ;; Defined at:
   891 ;;		line 44 in file "C:\Program Files (x86)\Microchip\xc8\v1.35\sources\common\fttol.c"
   892 ;; Parameters:    Size  Location     Type
   893 ;;  f1              3    0[COMRAM] float 
   894 ;; Auto vars:     Size  Location     Type
   895 ;;  lval            4   10[COMRAM] unsigned long 
   896 ;;  exp1            1   14[COMRAM] unsigned char 
   897 ;;  sign1           1    9[COMRAM] unsigned char 
   898 ;; Return value:  Size  Location     Type
   899 ;;                  4    0[COMRAM] long 
   900 ;; Registers used:
   901 ;;		wreg, status,2, status,0
   902 ;; Tracked objects:
   903 ;;		On entry : 0/0
   904 ;;		On exit  : 0/0
   905 ;;		Unchanged: 0/0
   906 ;; Data sizes:     COMRAM   BANK0   BANK1   BANK2
   907 ;;      Params:         4       0       0       0
   908 ;;      Locals:         6       0       0       0
   909 ;;      Temps:          5       0       0       0
   910 ;;      Totals:        15       0       0       0
   911 ;;Total ram usage:       15 bytes
   912 ;; Hardware stack levels used:    1
   913 ;; This function calls:
   914 ;;		Nothing
   915 ;; This function is called by:
   916 ;;		_main
   917 ;; This function uses a non-reentrant model
   918 ;;
   919                           
   920                           	psect	text5
   921  000322                     __ptext5:
   922                           	opt stack 0
   923  000322                     ___fttol:
   924                           	opt stack 30
   925                           
   926                           ;incstack = 0
   927  000322  C003  F005         	movff	___fttol@f1+2,??___fttol
   928  000326  6A06               	clrf	(??___fttol+1)& (0+255),c
   929  000328  6A07               	clrf	(??___fttol+2)& (0+255),c
   930  00032A  3402               	rlcf	___fttol@f1+1,w,c
   931  00032C  3605               	rlcf	??___fttol& (0+255),f,c
   932  00032E  E301               	bnc	u621
   933  000330  8006               	bsf	(??___fttol+1)& (0+255),0,c
   934  000332                     u621:
   935  000332  5005               	movf	??___fttol,w,c
   936  000334  6E0F               	movwf	___fttol@exp1,c
   937  000336  500F               	movf	___fttol@exp1,w,c
   938  000338  A4D8               	btfss	status,2,c
   939  00033A  D009               	goto	l1409
   940  00033C  0E00               	movlw	0
   941  00033E  6E01               	movwf	?___fttol,c
   942  000340  0E00               	movlw	0
   943  000342  6E02               	movwf	?___fttol+1,c
   944  000344  0E00               	movlw	0
   945  000346  6E03               	movwf	?___fttol+2,c
   946  000348  0E00               	movlw	0
   947  00034A  6E04               	movwf	?___fttol+3,c
   948  00034C  0012               	return	
   949  00034E                     l1409:
   950  00034E  0E17               	movlw	23
   951  000350  6E05               	movwf	??___fttol& (0+255),c
   952  000352  C001  F006         	movff	___fttol@f1,??___fttol+1
   953  000356  C002  F007         	movff	___fttol@f1+1,??___fttol+2
   954  00035A  C003  F008         	movff	___fttol@f1+2,??___fttol+3
   955  00035E  2805               	incf	??___fttol,w,c
   956  000360  6E09               	movwf	(??___fttol+4)& (0+255),c
   957  000362  D004               	goto	u640
   958  000364                     u645:
   959  000364  90D8               	bcf	status,0,c
   960  000366  3208               	rrcf	??___fttol+3,f,c
   961  000368  3207               	rrcf	??___fttol+2,f,c
   962  00036A  3206               	rrcf	??___fttol+1,f,c
   963  00036C                     u640:
   964  00036C  2E09               	decfsz	(??___fttol+4)& (0+255),f,c
   965  00036E  D7FA               	goto	u645
   966  000370  5006               	movf	??___fttol+1,w,c
   967  000372  6E0A               	movwf	___fttol@sign1,c
   968  000374  8E02               	bsf	___fttol@f1+1,7,c
   969  000376  0EFF               	movlw	255
   970  000378  1601               	andwf	___fttol@f1,f,c
   971  00037A  0EFF               	movlw	255
   972  00037C  1602               	andwf	___fttol@f1+1,f,c
   973  00037E  0E00               	movlw	0
   974  000380  1603               	andwf	___fttol@f1+2,f,c
   975  000382  5001               	movf	___fttol@f1,w,c
   976  000384  6E0B               	movwf	___fttol@lval,c
   977  000386  5002               	movf	___fttol@f1+1,w,c
   978  000388  6E0C               	movwf	___fttol@lval+1,c
   979  00038A  5003               	movf	___fttol@f1+2,w,c
   980  00038C  6E0D               	movwf	___fttol@lval+2,c
   981  00038E  6A0E               	clrf	___fttol@lval+3,c
   982  000390  0E8E               	movlw	142
   983  000392  5E0F               	subwf	___fttol@exp1,f,c
   984  000394  AE0F               	btfss	___fttol@exp1,7,c
   985  000396  D016               	goto	l1431
   986  000398  500F               	movf	___fttol@exp1,w,c
   987  00039A  0A80               	xorlw	128
   988  00039C  0F8F               	addlw	143
   989  00039E  B0D8               	btfsc	status,0,c
   990  0003A0  D009               	goto	l1427
   991  0003A2  0E00               	movlw	0
   992  0003A4  6E01               	movwf	?___fttol,c
   993  0003A6  0E00               	movlw	0
   994  0003A8  6E02               	movwf	?___fttol+1,c
   995  0003AA  0E00               	movlw	0
   996  0003AC  6E03               	movwf	?___fttol+2,c
   997  0003AE  0E00               	movlw	0
   998  0003B0  6E04               	movwf	?___fttol+3,c
   999  0003B2  0012               	return	
  1000  0003B4                     l1427:
  1001  0003B4  90D8               	bcf	status,0,c
  1002  0003B6  320E               	rrcf	___fttol@lval+3,f,c
  1003  0003B8  320D               	rrcf	___fttol@lval+2,f,c
  1004  0003BA  320C               	rrcf	___fttol@lval+1,f,c
  1005  0003BC  320B               	rrcf	___fttol@lval,f,c
  1006  0003BE  3E0F               	incfsz	___fttol@exp1,f,c
  1007  0003C0  D7F9               	goto	l1427
  1008  0003C2  D015               	goto	l1441
  1009  0003C4                     l1431:
  1010  0003C4  0E17               	movlw	23
  1011  0003C6  640F               	cpfsgt	___fttol@exp1,c
  1012  0003C8  D00F               	goto	l1439
  1013  0003CA  0E00               	movlw	0
  1014  0003CC  6E01               	movwf	?___fttol,c
  1015  0003CE  0E00               	movlw	0
  1016  0003D0  6E02               	movwf	?___fttol+1,c
  1017  0003D2  0E00               	movlw	0
  1018  0003D4  6E03               	movwf	?___fttol+2,c
  1019  0003D6  0E00               	movlw	0
  1020  0003D8  6E04               	movwf	?___fttol+3,c
  1021  0003DA  0012               	return	
  1022  0003DC                     l1437:
  1023  0003DC  90D8               	bcf	status,0,c
  1024  0003DE  360B               	rlcf	___fttol@lval,f,c
  1025  0003E0  360C               	rlcf	___fttol@lval+1,f,c
  1026  0003E2  360D               	rlcf	___fttol@lval+2,f,c
  1027  0003E4  360E               	rlcf	___fttol@lval+3,f,c
  1028  0003E6  060F               	decf	___fttol@exp1,f,c
  1029  0003E8                     l1439:
  1030  0003E8  500F               	movf	___fttol@exp1,w,c
  1031  0003EA  A4D8               	btfss	status,2,c
  1032  0003EC  D7F7               	goto	l1437
  1033  0003EE                     l1441:
  1034  0003EE  500A               	movf	___fttol@sign1,w,c
  1035  0003F0  B4D8               	btfsc	status,2,c
  1036  0003F2  D008               	goto	l1445
  1037  0003F4  1E0E               	comf	___fttol@lval+3,f,c
  1038  0003F6  1E0D               	comf	___fttol@lval+2,f,c
  1039  0003F8  1E0C               	comf	___fttol@lval+1,f,c
  1040  0003FA  6C0B               	negf	___fttol@lval,c
  1041  0003FC  0E00               	movlw	0
  1042  0003FE  220C               	addwfc	___fttol@lval+1,f,c
  1043  000400  220D               	addwfc	___fttol@lval+2,f,c
  1044  000402  220E               	addwfc	___fttol@lval+3,f,c
  1045  000404                     l1445:
  1046  000404  C00B  F001         	movff	___fttol@lval,?___fttol
  1047  000408  C00C  F002         	movff	___fttol@lval+1,?___fttol+1
  1048  00040C  C00D  F003         	movff	___fttol@lval+2,?___fttol+2
  1049  000410  C00E  F004         	movff	___fttol@lval+3,?___fttol+3
  1050  000414  0012               	return	
  1051  000416                     __end_of___fttol:
  1052                           	opt stack 0
  1053                           tblptru	equ	0xFF8
  1054                           tblptrh	equ	0xFF7
  1055                           tblptrl	equ	0xFF6
  1056                           tablat	equ	0xFF5
  1057                           postinc0	equ	0xFEE
  1058                           wreg	equ	0xFE8
  1059                           status	equ	0xFD8
  1060                           
  1061 ;; *************** function ___ftmul *****************
  1062 ;; Defined at:
  1063 ;;		line 62 in file "C:\Program Files (x86)\Microchip\xc8\v1.35\sources\common\ftmul.c"
  1064 ;; Parameters:    Size  Location     Type
  1065 ;;  f1              3   11[COMRAM] float 
  1066 ;;  f2              3   14[COMRAM] float 
  1067 ;; Auto vars:     Size  Location     Type
  1068 ;;  f3_as_produc    3   21[COMRAM] unsigned um
  1069 ;;  sign            1   25[COMRAM] unsigned char 
  1070 ;;  cntr            1   24[COMRAM] unsigned char 
  1071 ;;  exp             1   20[COMRAM] unsigned char 
  1072 ;; Return value:  Size  Location     Type
  1073 ;;                  3   11[COMRAM] float 
  1074 ;; Registers used:
  1075 ;;		wreg, status,2, status,0, cstack
  1076 ;; Tracked objects:
  1077 ;;		On entry : 0/0
  1078 ;;		On exit  : 0/0
  1079 ;;		Unchanged: 0/0
  1080 ;; Data sizes:     COMRAM   BANK0   BANK1   BANK2
  1081 ;;      Params:         6       0       0       0
  1082 ;;      Locals:         6       0       0       0
  1083 ;;      Temps:          3       0       0       0
  1084 ;;      Totals:        15       0       0       0
  1085 ;;Total ram usage:       15 bytes
  1086 ;; Hardware stack levels used:    1
  1087 ;; Hardware stack levels required when called:    1
  1088 ;; This function calls:
  1089 ;;		___ftpack
  1090 ;; This function is called by:
  1091 ;;		_main
  1092 ;; This function uses a non-reentrant model
  1093 ;;
  1094                           
  1095                           	psect	text6
  1096  000416                     __ptext6:
  1097                           	opt stack 0
  1098  000416                     ___ftmul:
  1099                           	opt stack 29
  1100                           
  1101                           ;incstack = 0
  1102  000416  C00E  F012         	movff	___ftmul@f1+2,??___ftmul
  1103  00041A  6A13               	clrf	(??___ftmul+1)& (0+255),c
  1104  00041C  6A14               	clrf	(??___ftmul+2)& (0+255),c
  1105  00041E  340D               	rlcf	___ftmul@f1+1,w,c
  1106  000420  3612               	rlcf	??___ftmul& (0+255),f,c
  1107  000422  E301               	bnc	u561
  1108  000424  8013               	bsf	(??___ftmul+1)& (0+255),0,c
  1109  000426                     u561:
  1110  000426  5012               	movf	??___ftmul,w,c
  1111  000428  6E15               	movwf	___ftmul@exp,c
  1112  00042A  5015               	movf	___ftmul@exp,w,c
  1113  00042C  A4D8               	btfss	status,2,c
  1114  00042E  D007               	goto	l1361
  1115  000430  0E00               	movlw	0
  1116  000432  6E0C               	movwf	?___ftmul,c
  1117  000434  0E00               	movlw	0
  1118  000436  6E0D               	movwf	?___ftmul+1,c
  1119  000438  0E00               	movlw	0
  1120  00043A  6E0E               	movwf	?___ftmul+2,c
  1121  00043C  0012               	return	
  1122  00043E                     l1361:
  1123  00043E  C011  F012         	movff	___ftmul@f2+2,??___ftmul
  1124  000442  6A13               	clrf	(??___ftmul+1)& (0+255),c
  1125  000444  6A14               	clrf	(??___ftmul+2)& (0+255),c
  1126  000446  3410               	rlcf	___ftmul@f2+1,w,c
  1127  000448  3612               	rlcf	??___ftmul& (0+255),f,c
  1128  00044A  E301               	bnc	u581
  1129  00044C  8013               	bsf	(??___ftmul+1)& (0+255),0,c
  1130  00044E                     u581:
  1131  00044E  5012               	movf	??___ftmul,w,c
  1132  000450  6E1A               	movwf	___ftmul@sign,c
  1133  000452  501A               	movf	___ftmul@sign,w,c
  1134  000454  A4D8               	btfss	status,2,c
  1135  000456  D007               	goto	l1367
  1136  000458  0E00               	movlw	0
  1137  00045A  6E0C               	movwf	?___ftmul,c
  1138  00045C  0E00               	movlw	0
  1139  00045E  6E0D               	movwf	?___ftmul+1,c
  1140  000460  0E00               	movlw	0
  1141  000462  6E0E               	movwf	?___ftmul+2,c
  1142  000464  0012               	return	
  1143  000466                     l1367:
  1144  000466  501A               	movf	___ftmul@sign,w,c
  1145  000468  0F7B               	addlw	123
  1146  00046A  2615               	addwf	___ftmul@exp,f,c
  1147  00046C  C00E  F01A         	movff	___ftmul@f1+2,___ftmul@sign
  1148  000470  5011               	movf	___ftmul@f2+2,w,c
  1149  000472  1A1A               	xorwf	___ftmul@sign,f,c
  1150  000474  0E80               	movlw	128
  1151  000476  161A               	andwf	___ftmul@sign,f,c
  1152  000478  8E0D               	bsf	___ftmul@f1+1,7,c
  1153  00047A  8E10               	bsf	___ftmul@f2+1,7,c
  1154  00047C  0EFF               	movlw	255
  1155  00047E  160F               	andwf	___ftmul@f2,f,c
  1156  000480  0EFF               	movlw	255
  1157  000482  1610               	andwf	___ftmul@f2+1,f,c
  1158  000484  0E00               	movlw	0
  1159  000486  1611               	andwf	___ftmul@f2+2,f,c
  1160  000488  0E00               	movlw	0
  1161  00048A  6E16               	movwf	___ftmul@f3_as_product,c
  1162  00048C  0E00               	movlw	0
  1163  00048E  6E17               	movwf	___ftmul@f3_as_product+1,c
  1164  000490  0E00               	movlw	0
  1165  000492  6E18               	movwf	___ftmul@f3_as_product+2,c
  1166  000494  0E07               	movlw	7
  1167  000496  6E19               	movwf	___ftmul@cntr,c
  1168  000498                     l1381:
  1169  000498  A00C               	btfss	___ftmul@f1,0,c
  1170  00049A  D006               	goto	l1385
  1171  00049C  500F               	movf	___ftmul@f2,w,c
  1172  00049E  2616               	addwf	___ftmul@f3_as_product,f,c
  1173  0004A0  5010               	movf	___ftmul@f2+1,w,c
  1174  0004A2  2217               	addwfc	___ftmul@f3_as_product+1,f,c
  1175  0004A4  5011               	movf	___ftmul@f2+2,w,c
  1176  0004A6  2218               	addwfc	___ftmul@f3_as_product+2,f,c
  1177  0004A8                     l1385:
  1178  0004A8  90D8               	bcf	status,0,c
  1179  0004AA  320E               	rrcf	___ftmul@f1+2,f,c
  1180  0004AC  320D               	rrcf	___ftmul@f1+1,f,c
  1181  0004AE  320C               	rrcf	___ftmul@f1,f,c
  1182  0004B0  90D8               	bcf	status,0,c
  1183  0004B2  360F               	rlcf	___ftmul@f2,f,c
  1184  0004B4  3610               	rlcf	___ftmul@f2+1,f,c
  1185  0004B6  3611               	rlcf	___ftmul@f2+2,f,c
  1186  0004B8  2E19               	decfsz	___ftmul@cntr,f,c
  1187  0004BA  D7EE               	goto	l1381
  1188  0004BC  0E09               	movlw	9
  1189  0004BE  6E19               	movwf	___ftmul@cntr,c
  1190  0004C0                     l1391:
  1191  0004C0  A00C               	btfss	___ftmul@f1,0,c
  1192  0004C2  D006               	goto	l1395
  1193  0004C4  500F               	movf	___ftmul@f2,w,c
  1194  0004C6  2616               	addwf	___ftmul@f3_as_product,f,c
  1195  0004C8  5010               	movf	___ftmul@f2+1,w,c
  1196  0004CA  2217               	addwfc	___ftmul@f3_as_product+1,f,c
  1197  0004CC  5011               	movf	___ftmul@f2+2,w,c
  1198  0004CE  2218               	addwfc	___ftmul@f3_as_product+2,f,c
  1199  0004D0                     l1395:
  1200  0004D0  90D8               	bcf	status,0,c
  1201  0004D2  320E               	rrcf	___ftmul@f1+2,f,c
  1202  0004D4  320D               	rrcf	___ftmul@f1+1,f,c
  1203  0004D6  320C               	rrcf	___ftmul@f1,f,c
  1204  0004D8  90D8               	bcf	status,0,c
  1205  0004DA  3218               	rrcf	___ftmul@f3_as_product+2,f,c
  1206  0004DC  3217               	rrcf	___ftmul@f3_as_product+1,f,c
  1207  0004DE  3216               	rrcf	___ftmul@f3_as_product,f,c
  1208  0004E0  2E19               	decfsz	___ftmul@cntr,f,c
  1209  0004E2  D7EE               	goto	l1391
  1210  0004E4  C016  F001         	movff	___ftmul@f3_as_product,___ftpack@arg
  1211  0004E8  C017  F002         	movff	___ftmul@f3_as_product+1,___ftpack@arg+1
  1212  0004EC  C018  F003         	movff	___ftmul@f3_as_product+2,___ftpack@arg+2
  1213  0004F0  C015  F004         	movff	___ftmul@exp,___ftpack@exp
  1214  0004F4  C01A  F005         	movff	___ftmul@sign,___ftpack@sign
  1215  0004F8  EC70  F003         	call	___ftpack	;wreg free
  1216  0004FC  C001  F00C         	movff	?___ftpack,?___ftmul
  1217  000500  C002  F00D         	movff	?___ftpack+1,?___ftmul+1
  1218  000504  C003  F00E         	movff	?___ftpack+2,?___ftmul+2
  1219  000508  0012               	return	
  1220  00050A                     __end_of___ftmul:
  1221                           	opt stack 0
  1222                           tblptru	equ	0xFF8
  1223                           tblptrh	equ	0xFF7
  1224                           tblptrl	equ	0xFF6
  1225                           tablat	equ	0xFF5
  1226                           postinc0	equ	0xFEE
  1227                           wreg	equ	0xFE8
  1228                           status	equ	0xFD8
  1229                           
  1230 ;; *************** function ___ftdiv *****************
  1231 ;; Defined at:
  1232 ;;		line 54 in file "C:\Program Files (x86)\Microchip\xc8\v1.35\sources\common\ftdiv.c"
  1233 ;; Parameters:    Size  Location     Type
  1234 ;;  f1              3   26[COMRAM] float 
  1235 ;;  f2              3   29[COMRAM] float 
  1236 ;; Auto vars:     Size  Location     Type
  1237 ;;  f3              3   36[COMRAM] float 
  1238 ;;  sign            1   40[COMRAM] unsigned char 
  1239 ;;  exp             1   39[COMRAM] unsigned char 
  1240 ;;  cntr            1   35[COMRAM] unsigned char 
  1241 ;; Return value:  Size  Location     Type
  1242 ;;                  3   26[COMRAM] float 
  1243 ;; Registers used:
  1244 ;;		wreg, status,2, status,0, cstack
  1245 ;; Tracked objects:
  1246 ;;		On entry : 0/0
  1247 ;;		On exit  : 0/0
  1248 ;;		Unchanged: 0/0
  1249 ;; Data sizes:     COMRAM   BANK0   BANK1   BANK2
  1250 ;;      Params:         6       0       0       0
  1251 ;;      Locals:         6       0       0       0
  1252 ;;      Temps:          3       0       0       0
  1253 ;;      Totals:        15       0       0       0
  1254 ;;Total ram usage:       15 bytes
  1255 ;; Hardware stack levels used:    1
  1256 ;; Hardware stack levels required when called:    1
  1257 ;; This function calls:
  1258 ;;		___ftpack
  1259 ;; This function is called by:
  1260 ;;		_main
  1261 ;; This function uses a non-reentrant model
  1262 ;;
  1263                           
  1264                           	psect	text7
  1265  0005FA                     __ptext7:
  1266                           	opt stack 0
  1267  0005FA                     ___ftdiv:
  1268                           	opt stack 29
  1269                           
  1270                           ;incstack = 0
  1271  0005FA  C01D  F021         	movff	___ftdiv@f1+2,??___ftdiv
  1272  0005FE  6A22               	clrf	(??___ftdiv+1)& (0+255),c
  1273  000600  6A23               	clrf	(??___ftdiv+2)& (0+255),c
  1274  000602  341C               	rlcf	___ftdiv@f1+1,w,c
  1275  000604  3621               	rlcf	??___ftdiv& (0+255),f,c
  1276  000606  E301               	bnc	u511
  1277  000608  8022               	bsf	(??___ftdiv+1)& (0+255),0,c
  1278  00060A                     u511:
  1279  00060A  5021               	movf	??___ftdiv,w,c
  1280  00060C  6E28               	movwf	___ftdiv@exp,c
  1281  00060E  5028               	movf	___ftdiv@exp,w,c
  1282  000610  A4D8               	btfss	status,2,c
  1283  000612  D007               	goto	l1315
  1284  000614  0E00               	movlw	0
  1285  000616  6E1B               	movwf	?___ftdiv,c
  1286  000618  0E00               	movlw	0
  1287  00061A  6E1C               	movwf	?___ftdiv+1,c
  1288  00061C  0E00               	movlw	0
  1289  00061E  6E1D               	movwf	?___ftdiv+2,c
  1290  000620  0012               	return	
  1291  000622                     l1315:
  1292  000622  C020  F021         	movff	___ftdiv@f2+2,??___ftdiv
  1293  000626  6A22               	clrf	(??___ftdiv+1)& (0+255),c
  1294  000628  6A23               	clrf	(??___ftdiv+2)& (0+255),c
  1295  00062A  341F               	rlcf	___ftdiv@f2+1,w,c
  1296  00062C  3621               	rlcf	??___ftdiv& (0+255),f,c
  1297  00062E  E301               	bnc	u531
  1298  000630  8022               	bsf	(??___ftdiv+1)& (0+255),0,c
  1299  000632                     u531:
  1300  000632  5021               	movf	??___ftdiv,w,c
  1301  000634  6E29               	movwf	___ftdiv@sign,c
  1302  000636  5029               	movf	___ftdiv@sign,w,c
  1303  000638  A4D8               	btfss	status,2,c
  1304  00063A  D007               	goto	l1321
  1305  00063C  0E00               	movlw	0
  1306  00063E  6E1B               	movwf	?___ftdiv,c
  1307  000640  0E00               	movlw	0
  1308  000642  6E1C               	movwf	?___ftdiv+1,c
  1309  000644  0E00               	movlw	0
  1310  000646  6E1D               	movwf	?___ftdiv+2,c
  1311  000648  0012               	return	
  1312  00064A                     l1321:
  1313  00064A  0E00               	movlw	0
  1314  00064C  6E25               	movwf	___ftdiv@f3,c
  1315  00064E  0E00               	movlw	0
  1316  000650  6E26               	movwf	___ftdiv@f3+1,c
  1317  000652  0E00               	movlw	0
  1318  000654  6E27               	movwf	___ftdiv@f3+2,c
  1319  000656  5029               	movf	___ftdiv@sign,w,c
  1320  000658  0F89               	addlw	137
  1321  00065A  5E28               	subwf	___ftdiv@exp,f,c
  1322  00065C  C01D  F029         	movff	___ftdiv@f1+2,___ftdiv@sign
  1323  000660  5020               	movf	___ftdiv@f2+2,w,c
  1324  000662  1A29               	xorwf	___ftdiv@sign,f,c
  1325  000664  0E80               	movlw	128
  1326  000666  1629               	andwf	___ftdiv@sign,f,c
  1327  000668  8E1C               	bsf	___ftdiv@f1+1,7,c
  1328  00066A  0EFF               	movlw	255
  1329  00066C  161B               	andwf	___ftdiv@f1,f,c
  1330  00066E  0EFF               	movlw	255
  1331  000670  161C               	andwf	___ftdiv@f1+1,f,c
  1332  000672  0E00               	movlw	0
  1333  000674  161D               	andwf	___ftdiv@f1+2,f,c
  1334  000676  8E1F               	bsf	___ftdiv@f2+1,7,c
  1335  000678  0EFF               	movlw	255
  1336  00067A  161E               	andwf	___ftdiv@f2,f,c
  1337  00067C  0EFF               	movlw	255
  1338  00067E  161F               	andwf	___ftdiv@f2+1,f,c
  1339  000680  0E00               	movlw	0
  1340  000682  1620               	andwf	___ftdiv@f2+2,f,c
  1341  000684  0E18               	movlw	24
  1342  000686  6E24               	movwf	___ftdiv@cntr,c
  1343  000688                     l1341:
  1344  000688  90D8               	bcf	status,0,c
  1345  00068A  3625               	rlcf	___ftdiv@f3,f,c
  1346  00068C  3626               	rlcf	___ftdiv@f3+1,f,c
  1347  00068E  3627               	rlcf	___ftdiv@f3+2,f,c
  1348  000690  501E               	movf	___ftdiv@f2,w,c
  1349  000692  5C1B               	subwf	___ftdiv@f1,w,c
  1350  000694  501F               	movf	___ftdiv@f2+1,w,c
  1351  000696  581C               	subwfb	___ftdiv@f1+1,w,c
  1352  000698  5020               	movf	___ftdiv@f2+2,w,c
  1353  00069A  581D               	subwfb	___ftdiv@f1+2,w,c
  1354  00069C  A0D8               	btfss	status,0,c
  1355  00069E  D007               	goto	l610
  1356  0006A0  501E               	movf	___ftdiv@f2,w,c
  1357  0006A2  5E1B               	subwf	___ftdiv@f1,f,c
  1358  0006A4  501F               	movf	___ftdiv@f2+1,w,c
  1359  0006A6  5A1C               	subwfb	___ftdiv@f1+1,f,c
  1360  0006A8  5020               	movf	___ftdiv@f2+2,w,c
  1361  0006AA  5A1D               	subwfb	___ftdiv@f1+2,f,c
  1362  0006AC  8025               	bsf	___ftdiv@f3,0,c
  1363  0006AE                     l610:
  1364  0006AE  90D8               	bcf	status,0,c
  1365  0006B0  361B               	rlcf	___ftdiv@f1,f,c
  1366  0006B2  361C               	rlcf	___ftdiv@f1+1,f,c
  1367  0006B4  361D               	rlcf	___ftdiv@f1+2,f,c
  1368  0006B6  2E24               	decfsz	___ftdiv@cntr,f,c
  1369  0006B8  D7E7               	goto	l1341
  1370  0006BA  C025  F001         	movff	___ftdiv@f3,___ftpack@arg
  1371  0006BE  C026  F002         	movff	___ftdiv@f3+1,___ftpack@arg+1
  1372  0006C2  C027  F003         	movff	___ftdiv@f3+2,___ftpack@arg+2
  1373  0006C6  C028  F004         	movff	___ftdiv@exp,___ftpack@exp
  1374  0006CA  C029  F005         	movff	___ftdiv@sign,___ftpack@sign
  1375  0006CE  EC70  F003         	call	___ftpack	;wreg free
  1376  0006D2  C001  F01B         	movff	?___ftpack,?___ftdiv
  1377  0006D6  C002  F01C         	movff	?___ftpack+1,?___ftdiv+1
  1378  0006DA  C003  F01D         	movff	?___ftpack+2,?___ftdiv+2
  1379  0006DE  0012               	return	
  1380  0006E0                     __end_of___ftdiv:
  1381                           	opt stack 0
  1382                           tblptru	equ	0xFF8
  1383                           tblptrh	equ	0xFF7
  1384                           tblptrl	equ	0xFF6
  1385                           tablat	equ	0xFF5
  1386                           postinc0	equ	0xFEE
  1387                           wreg	equ	0xFE8
  1388                           status	equ	0xFD8
  1389                           
  1390 ;; *************** function ___ftpack *****************
  1391 ;; Defined at:
  1392 ;;		line 62 in file "C:\Program Files (x86)\Microchip\xc8\v1.35\sources\common\float.c"
  1393 ;; Parameters:    Size  Location     Type
  1394 ;;  arg             3    0[COMRAM] unsigned um
  1395 ;;  exp             1    3[COMRAM] unsigned char 
  1396 ;;  sign            1    4[COMRAM] unsigned char 
  1397 ;; Auto vars:     Size  Location     Type
  1398 ;;		None
  1399 ;; Return value:  Size  Location     Type
  1400 ;;                  3    0[COMRAM] float 
  1401 ;; Registers used:
  1402 ;;		wreg, status,2, status,0
  1403 ;; Tracked objects:
  1404 ;;		On entry : 0/0
  1405 ;;		On exit  : 0/0
  1406 ;;		Unchanged: 0/0
  1407 ;; Data sizes:     COMRAM   BANK0   BANK1   BANK2
  1408 ;;      Params:         5       0       0       0
  1409 ;;      Locals:         0       0       0       0
  1410 ;;      Temps:          3       0       0       0
  1411 ;;      Totals:         8       0       0       0
  1412 ;;Total ram usage:        8 bytes
  1413 ;; Hardware stack levels used:    1
  1414 ;; This function calls:
  1415 ;;		Nothing
  1416 ;; This function is called by:
  1417 ;;		___ftdiv
  1418 ;;		___ftmul
  1419 ;;		___lwtoft
  1420 ;; This function uses a non-reentrant model
  1421 ;;
  1422                           
  1423                           	psect	text8
  1424  0006E0                     __ptext8:
  1425                           	opt stack 0
  1426  0006E0                     ___ftpack:
  1427                           	opt stack 29
  1428                           
  1429                           ;incstack = 0
  1430  0006E0  5004               	movf	___ftpack@exp,w,c
  1431  0006E2  B4D8               	btfsc	status,2,c
  1432  0006E4  D005               	goto	l1259
  1433  0006E6  5001               	movf	___ftpack@arg,w,c
  1434  0006E8  1002               	iorwf	___ftpack@arg+1,w,c
  1435  0006EA  1003               	iorwf	___ftpack@arg+2,w,c
  1436  0006EC  A4D8               	btfss	status,2,c
  1437  0006EE  D00C               	goto	l1265
  1438  0006F0                     l1259:
  1439  0006F0  0E00               	movlw	0
  1440  0006F2  6E01               	movwf	?___ftpack,c
  1441  0006F4  0E00               	movlw	0
  1442  0006F6  6E02               	movwf	?___ftpack+1,c
  1443  0006F8  0E00               	movlw	0
  1444  0006FA  6E03               	movwf	?___ftpack+2,c
  1445  0006FC  0012               	return	
  1446  0006FE                     l1263:
  1447  0006FE  2A04               	incf	___ftpack@exp,f,c
  1448  000700  90D8               	bcf	status,0,c
  1449  000702  3203               	rrcf	___ftpack@arg+2,f,c
  1450  000704  3202               	rrcf	___ftpack@arg+1,f,c
  1451  000706  3201               	rrcf	___ftpack@arg,f,c
  1452  000708                     l1265:
  1453  000708  0E00               	movlw	0
  1454  00070A  1401               	andwf	___ftpack@arg,w,c
  1455  00070C  6E06               	movwf	??___ftpack& (0+255),c
  1456  00070E  0E00               	movlw	0
  1457  000710  1402               	andwf	___ftpack@arg+1,w,c
  1458  000712  6E07               	movwf	(??___ftpack+1)& (0+255),c
  1459  000714  0EFE               	movlw	254
  1460  000716  1403               	andwf	___ftpack@arg+2,w,c
  1461  000718  6E08               	movwf	(??___ftpack+2)& (0+255),c
  1462  00071A  5006               	movf	??___ftpack,w,c
  1463  00071C  1007               	iorwf	??___ftpack+1,w,c
  1464  00071E  1008               	iorwf	??___ftpack+2,w,c
  1465  000720  B4D8               	btfsc	status,2,c
  1466  000722  D00C               	goto	l1271
  1467  000724  D7EC               	goto	l1263
  1468  000726                     l1267:
  1469  000726  2A04               	incf	___ftpack@exp,f,c
  1470  000728  0E01               	movlw	1
  1471  00072A  2601               	addwf	___ftpack@arg,f,c
  1472  00072C  0E00               	movlw	0
  1473  00072E  2202               	addwfc	___ftpack@arg+1,f,c
  1474  000730  0E00               	movlw	0
  1475  000732  2203               	addwfc	___ftpack@arg+2,f,c
  1476  000734  90D8               	bcf	status,0,c
  1477  000736  3203               	rrcf	___ftpack@arg+2,f,c
  1478  000738  3202               	rrcf	___ftpack@arg+1,f,c
  1479  00073A  3201               	rrcf	___ftpack@arg,f,c
  1480  00073C                     l1271:
  1481  00073C  0E00               	movlw	0
  1482  00073E  1401               	andwf	___ftpack@arg,w,c
  1483  000740  6E06               	movwf	??___ftpack& (0+255),c
  1484  000742  0E00               	movlw	0
  1485  000744  1402               	andwf	___ftpack@arg+1,w,c
  1486  000746  6E07               	movwf	(??___ftpack+1)& (0+255),c
  1487  000748  0EFF               	movlw	255
  1488  00074A  1403               	andwf	___ftpack@arg+2,w,c
  1489  00074C  6E08               	movwf	(??___ftpack+2)& (0+255),c
  1490  00074E  5006               	movf	??___ftpack,w,c
  1491  000750  1007               	iorwf	??___ftpack+1,w,c
  1492  000752  1008               	iorwf	??___ftpack+2,w,c
  1493  000754  B4D8               	btfsc	status,2,c
  1494  000756  D006               	goto	l1275
  1495  000758  D7E6               	goto	l1267
  1496  00075A                     l1273:
  1497  00075A  0604               	decf	___ftpack@exp,f,c
  1498  00075C  90D8               	bcf	status,0,c
  1499  00075E  3601               	rlcf	___ftpack@arg,f,c
  1500  000760  3602               	rlcf	___ftpack@arg+1,f,c
  1501  000762  3603               	rlcf	___ftpack@arg+2,f,c
  1502  000764                     l1275:
  1503  000764  BE02               	btfsc	___ftpack@arg+1,7,c
  1504  000766  D003               	goto	l552
  1505  000768  0E02               	movlw	2
  1506  00076A  6004               	cpfslt	___ftpack@exp,c
  1507  00076C  D7F6               	goto	l1273
  1508  00076E                     l552:
  1509  00076E  A004               	btfss	___ftpack@exp,0,c
  1510  000770  9E02               	bcf	___ftpack@arg+1,7,c
  1511  000772  90D8               	bcf	status,0,c
  1512  000774  3204               	rrcf	___ftpack@exp,f,c
  1513  000776  5004               	movf	___ftpack@exp,w,c
  1514  000778  1203               	iorwf	___ftpack@arg+2,f,c
  1515  00077A  5005               	movf	___ftpack@sign,w,c
  1516  00077C  A4D8               	btfss	status,2,c
  1517  00077E  8E03               	bsf	___ftpack@arg+2,7,c
  1518  000780  C001  F001         	movff	___ftpack@arg,?___ftpack
  1519  000784  C002  F002         	movff	___ftpack@arg+1,?___ftpack+1
  1520  000788  C003  F003         	movff	___ftpack@arg+2,?___ftpack+2
  1521  00078C  0012               	return	
  1522  00078E                     __end_of___ftpack:
  1523                           	opt stack 0
  1524                           tblptru	equ	0xFF8
  1525                           tblptrh	equ	0xFF7
  1526                           tblptrl	equ	0xFF6
  1527                           tablat	equ	0xFF5
  1528                           postinc0	equ	0xFEE
  1529                           wreg	equ	0xFE8
  1530                           status	equ	0xFD8
  1531                           
  1532 ;; *************** function _InitDevice *****************
  1533 ;; Defined at:
  1534 ;;		line 120 in file "main.c"
  1535 ;; Parameters:    Size  Location     Type
  1536 ;;		None
  1537 ;; Auto vars:     Size  Location     Type
  1538 ;;		None
  1539 ;; Return value:  Size  Location     Type
  1540 ;;		None               void
  1541 ;; Registers used:
  1542 ;;		wreg, status,2, cstack
  1543 ;; Tracked objects:
  1544 ;;		On entry : 0/0
  1545 ;;		On exit  : 0/0
  1546 ;;		Unchanged: 0/0
  1547 ;; Data sizes:     COMRAM   BANK0   BANK1   BANK2
  1548 ;;      Params:         0       0       0       0
  1549 ;;      Locals:         0       0       0       0
  1550 ;;      Temps:          0       0       0       0
  1551 ;;      Totals:         0       0       0       0
  1552 ;;Total ram usage:        0 bytes
  1553 ;; Hardware stack levels used:    1
  1554 ;; Hardware stack levels required when called:    1
  1555 ;; This function calls:
  1556 ;;		_InitECAN
  1557 ;;		_InitUART
  1558 ;;		_adc_init
  1559 ;; This function is called by:
  1560 ;;		_main
  1561 ;; This function uses a non-reentrant model
  1562 ;;
  1563                           
  1564                           	psect	text9
  1565  000884                     __ptext9:
  1566                           	opt stack 0
  1567  000884                     _InitDevice:
  1568                           	opt stack 29
  1569                           
  1570                           ;main.c: 124: OSCCONbits.IRCF = 7;
  1571                           
  1572                           ;incstack = 0
  1573  000884  88D3               	bsf	4051,4,c	;volatile
  1574  000886  8AD3               	bsf	4051,5,c	;volatile
  1575  000888  8CD3               	bsf	4051,6,c	;volatile
  1576                           
  1577                           ;main.c: 125: OSCTUNEbits.PLLEN = 0;
  1578  00088A  9C9B               	bcf	3995,6,c	;volatile
  1579                           
  1580                           ;main.c: 128: heartbeatCount = 0;
  1581  00088C  0E00               	movlw	0
  1582  00088E  6E35               	movwf	_heartbeatCount+1,c
  1583  000890  0E00               	movlw	0
  1584  000892  6E34               	movwf	_heartbeatCount,c
  1585                           
  1586                           ;main.c: 131: ADCON1bits.PCFG = 0xF;
  1587  000894  80C1               	bsf	4033,0,c	;volatile
  1588  000896  82C1               	bsf	4033,1,c	;volatile
  1589  000898  84C1               	bsf	4033,2,c	;volatile
  1590  00089A  86C1               	bsf	4033,3,c	;volatile
  1591                           
  1592                           ;main.c: 134: TRISAbits.TRISA0 = 1;
  1593  00089C  8092               	bsf	3986,0,c	;volatile
  1594                           
  1595                           ;main.c: 137: TRISBbits.TRISB2 = 0;
  1596  00089E  9493               	bcf	3987,2,c	;volatile
  1597                           
  1598                           ;main.c: 138: TRISBbits.TRISB3 = 1;
  1599  0008A0  8693               	bsf	3987,3,c	;volatile
  1600                           
  1601                           ;main.c: 141: InitUART();
  1602  0008A2  EC9F  F004         	call	_InitUART	;wreg free
  1603                           
  1604                           ;main.c: 144: InitECAN();
  1605  0008A6  ECC7  F003         	call	_InitECAN	;wreg free
  1606                           
  1607                           ;main.c: 146: adc_init();
  1608  0008AA  ECB2  F004         	call	_adc_init	;wreg free
  1609  0008AE  0012               	return		;funcret
  1610  0008B0                     __end_of_InitDevice:
  1611                           	opt stack 0
  1612                           tblptru	equ	0xFF8
  1613                           tblptrh	equ	0xFF7
  1614                           tblptrl	equ	0xFF6
  1615                           tablat	equ	0xFF5
  1616                           postinc0	equ	0xFEE
  1617                           wreg	equ	0xFE8
  1618                           status	equ	0xFD8
  1619                           
  1620 ;; *************** function _adc_init *****************
  1621 ;; Defined at:
  1622 ;;		line 225 in file "main.c"
  1623 ;; Parameters:    Size  Location     Type
  1624 ;;		None
  1625 ;; Auto vars:     Size  Location     Type
  1626 ;;		None
  1627 ;; Return value:  Size  Location     Type
  1628 ;;		None               void
  1629 ;; Registers used:
  1630 ;;		wreg, status,2
  1631 ;; Tracked objects:
  1632 ;;		On entry : 0/0
  1633 ;;		On exit  : 0/0
  1634 ;;		Unchanged: 0/0
  1635 ;; Data sizes:     COMRAM   BANK0   BANK1   BANK2
  1636 ;;      Params:         0       0       0       0
  1637 ;;      Locals:         0       0       0       0
  1638 ;;      Temps:          0       0       0       0
  1639 ;;      Totals:         0       0       0       0
  1640 ;;Total ram usage:        0 bytes
  1641 ;; Hardware stack levels used:    1
  1642 ;; This function calls:
  1643 ;;		Nothing
  1644 ;; This function is called by:
  1645 ;;		_InitDevice
  1646 ;; This function uses a non-reentrant model
  1647 ;;
  1648                           
  1649                           	psect	text10
  1650  000964                     __ptext10:
  1651                           	opt stack 0
  1652  000964                     _adc_init:
  1653                           	opt stack 29
  1654                           
  1655                           ;main.c: 226: ADCON0 = 0x001;
  1656                           
  1657                           ;incstack = 0
  1658  000964  0E01               	movlw	1
  1659  000966  6EC2               	movwf	4034,c	;volatile
  1660                           
  1661                           ;main.c: 227: ADCON1 = 0x0E;
  1662  000968  0E0E               	movlw	14
  1663  00096A  6EC1               	movwf	4033,c	;volatile
  1664                           
  1665                           ;main.c: 228: ADCON2 = 0xB3;
  1666  00096C  0EB3               	movlw	179
  1667  00096E  6EC0               	movwf	4032,c	;volatile
  1668  000970  0012               	return		;funcret
  1669  000972                     __end_of_adc_init:
  1670                           	opt stack 0
  1671                           tblptru	equ	0xFF8
  1672                           tblptrh	equ	0xFF7
  1673                           tblptrl	equ	0xFF6
  1674                           tablat	equ	0xFF5
  1675                           postinc0	equ	0xFEE
  1676                           wreg	equ	0xFE8
  1677                           status	equ	0xFD8
  1678                           
  1679 ;; *************** function _InitUART *****************
  1680 ;; Defined at:
  1681 ;;		line 202 in file "main.c"
  1682 ;; Parameters:    Size  Location     Type
  1683 ;;		None
  1684 ;; Auto vars:     Size  Location     Type
  1685 ;;		None
  1686 ;; Return value:  Size  Location     Type
  1687 ;;		None               void
  1688 ;; Registers used:
  1689 ;;		wreg, status,2
  1690 ;; Tracked objects:
  1691 ;;		On entry : 0/0
  1692 ;;		On exit  : 0/0
  1693 ;;		Unchanged: 0/0
  1694 ;; Data sizes:     COMRAM   BANK0   BANK1   BANK2
  1695 ;;      Params:         0       0       0       0
  1696 ;;      Locals:         0       0       0       0
  1697 ;;      Temps:          0       0       0       0
  1698 ;;      Totals:         0       0       0       0
  1699 ;;Total ram usage:        0 bytes
  1700 ;; Hardware stack levels used:    1
  1701 ;; This function calls:
  1702 ;;		Nothing
  1703 ;; This function is called by:
  1704 ;;		_InitDevice
  1705 ;; This function uses a non-reentrant model
  1706 ;;
  1707                           
  1708                           	psect	text11
  1709  00093E                     __ptext11:
  1710                           	opt stack 0
  1711  00093E                     _InitUART:
  1712                           	opt stack 29
  1713                           
  1714                           ;main.c: 204: TRISCbits.TRISC6 = 0;
  1715                           
  1716                           ;incstack = 0
  1717  00093E  9C94               	bcf	3988,6,c	;volatile
  1718                           
  1719                           ;main.c: 206: BAUDCONbits.BRG16 = 0;
  1720  000940  96B8               	bcf	4024,3,c	;volatile
  1721                           
  1722                           ;main.c: 208: SPBRG = 12;
  1723  000942  0E0C               	movlw	12
  1724  000944  6EAF               	movwf	4015,c	;volatile
  1725                           
  1726                           ;main.c: 211: TXSTAbits.TX9 = 0;
  1727  000946  9CAC               	bcf	4012,6,c	;volatile
  1728                           
  1729                           ;main.c: 212: TXSTAbits.TXEN = 1;
  1730  000948  8AAC               	bsf	4012,5,c	;volatile
  1731                           
  1732                           ;main.c: 213: TXSTAbits.SYNC = 0;
  1733  00094A  98AC               	bcf	4012,4,c	;volatile
  1734                           
  1735                           ;main.c: 214: TXSTAbits.BRGH = 0;
  1736  00094C  94AC               	bcf	4012,2,c	;volatile
  1737                           
  1738                           ;main.c: 216: RCSTAbits.SPEN = 1;
  1739  00094E  8EAB               	bsf	4011,7,c	;volatile
  1740  000950  0012               	return		;funcret
  1741  000952                     __end_of_InitUART:
  1742                           	opt stack 0
  1743                           tblptru	equ	0xFF8
  1744                           tblptrh	equ	0xFF7
  1745                           tblptrl	equ	0xFF6
  1746                           tablat	equ	0xFF5
  1747                           postinc0	equ	0xFEE
  1748                           wreg	equ	0xFE8
  1749                           status	equ	0xFD8
  1750                           
  1751 ;; *************** function _InitECAN *****************
  1752 ;; Defined at:
  1753 ;;		line 66 in file "ECAN_P18.c"
  1754 ;; Parameters:    Size  Location     Type
  1755 ;;		None
  1756 ;; Auto vars:     Size  Location     Type
  1757 ;;		None
  1758 ;; Return value:  Size  Location     Type
  1759 ;;		None               void
  1760 ;; Registers used:
  1761 ;;		wreg, status,2
  1762 ;; Tracked objects:
  1763 ;;		On entry : 0/0
  1764 ;;		On exit  : 0/0
  1765 ;;		Unchanged: 0/0
  1766 ;; Data sizes:     COMRAM   BANK0   BANK1   BANK2
  1767 ;;      Params:         0       0       0       0
  1768 ;;      Locals:         0       0       0       0
  1769 ;;      Temps:          0       0       0       0
  1770 ;;      Totals:         0       0       0       0
  1771 ;;Total ram usage:        0 bytes
  1772 ;; Hardware stack levels used:    1
  1773 ;; This function calls:
  1774 ;;		Nothing
  1775 ;; This function is called by:
  1776 ;;		_InitDevice
  1777 ;; This function uses a non-reentrant model
  1778 ;;
  1779                           
  1780                           	psect	text12
  1781  00078E                     __ptext12:
  1782                           	opt stack 0
  1783  00078E                     _InitECAN:
  1784                           	opt stack 29
  1785                           
  1786                           ;ECAN_P18.c: 72: CANCON = 0x80;
  1787                           
  1788                           ;incstack = 0
  1789  00078E  0E80               	movlw	128
  1790  000790  6E6F               	movwf	3951,c	;volatile
  1791  000792                     l169:
  1792  000792  B06E               	btfsc	3950,0,c	;volatile
  1793  000794  D7FE               	goto	l169
  1794                           
  1795                           ;ECAN_P18.c: 81: ECANCON = 0x00;
  1796  000796  0E00               	movlw	0
  1797  000798  6E77               	movwf	3959,c	;volatile
  1798                           
  1799                           ;ECAN_P18.c: 87: CIOCONbits.ENDRHI = 1;
  1800  00079A  8A73               	bsf	3955,5,c	;volatile
  1801                           
  1802                           ;ECAN_P18.c: 90: CIOCONbits.CANCAP = 0;
  1803  00079C  9873               	bcf	3955,4,c	;volatile
  1804                           
  1805                           ;ECAN_P18.c: 99: BRGCON1 = 0xC0;
  1806  00079E  0EC0               	movlw	192
  1807  0007A0  6E70               	movwf	3952,c	;volatile
  1808                           
  1809                           ;ECAN_P18.c: 101: BRGCON2 = 0x80;
  1810  0007A2  0E80               	movlw	128
  1811  0007A4  6E71               	movwf	3953,c	;volatile
  1812                           
  1813                           ;ECAN_P18.c: 103: BRGCON3 = 0x05;
  1814  0007A6  0E05               	movlw	5
  1815  0007A8  6E72               	movwf	3954,c	;volatile
  1816                           
  1817                           ;ECAN_P18.c: 113: RXM0EIDH = 0x00;
  1818  0007AA  0E00               	movlw	0
  1819  0007AC  010F               	movlb	15	; () banked
  1820  0007AE  6F1A               	movwf	26,b	;volatile
  1821                           
  1822                           ;ECAN_P18.c: 114: RXM0EIDL = 0x00;
  1823  0007B0  0E00               	movlw	0
  1824  0007B2  010F               	movlb	15	; () banked
  1825  0007B4  6F1B               	movwf	27,b	;volatile
  1826                           
  1827                           ; BSR set to: 15
  1828                           ;ECAN_P18.c: 115: RXM0SIDH = 0xFF;
  1829  0007B6  010F               	movlb	15	; () banked
  1830  0007B8  6918               	setf	24,b	;volatile
  1831                           
  1832                           ;ECAN_P18.c: 116: RXM0SIDL = 0xE0;
  1833  0007BA  0EE0               	movlw	224
  1834  0007BC  010F               	movlb	15	; () banked
  1835  0007BE  6F19               	movwf	25,b	;volatile
  1836                           
  1837                           ;ECAN_P18.c: 119: RXM1EIDH = 0x00;
  1838  0007C0  0E00               	movlw	0
  1839  0007C2  010F               	movlb	15	; () banked
  1840  0007C4  6F1E               	movwf	30,b	;volatile
  1841                           
  1842                           ;ECAN_P18.c: 120: RXM1EIDL = 0x00;
  1843  0007C6  0E00               	movlw	0
  1844  0007C8  010F               	movlb	15	; () banked
  1845  0007CA  6F1F               	movwf	31,b	;volatile
  1846                           
  1847                           ; BSR set to: 15
  1848                           ;ECAN_P18.c: 121: RXM1SIDH = 0xFF;
  1849  0007CC  010F               	movlb	15	; () banked
  1850  0007CE  691C               	setf	28,b	;volatile
  1851                           
  1852                           ;ECAN_P18.c: 122: RXM1SIDL = 0xE0;
  1853  0007D0  0EE0               	movlw	224
  1854  0007D2  010F               	movlb	15	; () banked
  1855  0007D4  6F1D               	movwf	29,b	;volatile
  1856                           
  1857                           ;ECAN_P18.c: 126: RXFCON0 = 0x03;
  1858  0007D6  0E03               	movlw	3
  1859  0007D8  010D               	movlb	13	; () banked
  1860  0007DA  6FD4               	movwf	212,b	;volatile
  1861                           
  1862                           ;ECAN_P18.c: 127: RXFCON1 = 0x00;
  1863  0007DC  0E00               	movlw	0
  1864  0007DE  010D               	movlb	13	; () banked
  1865  0007E0  6FD5               	movwf	213,b	;volatile
  1866                           
  1867                           ;ECAN_P18.c: 133: RXF0EIDH = 0x00;
  1868  0007E2  0E00               	movlw	0
  1869  0007E4  010F               	movlb	15	; () banked
  1870  0007E6  6F02               	movwf	2,b	;volatile
  1871                           
  1872                           ;ECAN_P18.c: 134: RXF0EIDL = 0x00;
  1873  0007E8  0E00               	movlw	0
  1874  0007EA  010F               	movlb	15	; () banked
  1875  0007EC  6F03               	movwf	3,b	;volatile
  1876                           
  1877                           ;ECAN_P18.c: 135: RXF0SIDH = 0x32;
  1878  0007EE  0E32               	movlw	50
  1879  0007F0  010F               	movlb	15	; () banked
  1880  0007F2  6F00               	movwf	0,b	;volatile
  1881                           
  1882                           ;ECAN_P18.c: 136: RXF0SIDL = 0xC0;
  1883  0007F4  0EC0               	movlw	192
  1884  0007F6  010F               	movlb	15	; () banked
  1885  0007F8  6F01               	movwf	1,b	;volatile
  1886                           
  1887                           ;ECAN_P18.c: 137: RXF2EIDH = 0x00;
  1888  0007FA  0E00               	movlw	0
  1889  0007FC  010F               	movlb	15	; () banked
  1890  0007FE  6F0A               	movwf	10,b	;volatile
  1891                           
  1892                           ;ECAN_P18.c: 138: RXF2EIDL = 0x00;
  1893  000800  0E00               	movlw	0
  1894  000802  010F               	movlb	15	; () banked
  1895  000804  6F0B               	movwf	11,b	;volatile
  1896                           
  1897                           ;ECAN_P18.c: 139: RXF2SIDH = 0x33;
  1898  000806  0E33               	movlw	51
  1899  000808  010F               	movlb	15	; () banked
  1900  00080A  6F08               	movwf	8,b	;volatile
  1901                           
  1902                           ;ECAN_P18.c: 140: RXF2SIDL = 0xC0;
  1903  00080C  0EC0               	movlw	192
  1904  00080E  010F               	movlb	15	; () banked
  1905  000810  6F09               	movwf	9,b	;volatile
  1906                           
  1907                           ;ECAN_P18.c: 146: CANCON = 0x00;
  1908  000812  0E00               	movlw	0
  1909  000814  6E6F               	movwf	3951,c	;volatile
  1910  000816                     l172:
  1911  000816  B06E               	btfsc	3950,0,c	;volatile
  1912  000818  D7FE               	goto	l172
  1913                           
  1914                           ;ECAN_P18.c: 150: RXB0CON = 0x00;
  1915  00081A  0E00               	movlw	0
  1916  00081C  6E60               	movwf	3936,c	;volatile
  1917                           
  1918                           ;ECAN_P18.c: 151: RXB1CON = 0x00;
  1919  00081E  0E00               	movlw	0
  1920  000820  010F               	movlb	15	; () banked
  1921  000822  6F50               	movwf	80,b	;volatile
  1922                           
  1923                           ; BSR set to: 15
  1924  000824  0012               	return		;funcret
  1925  000826                     __end_of_InitECAN:
  1926                           	opt stack 0
  1927                           tblptru	equ	0xFF8
  1928                           tblptrh	equ	0xFF7
  1929                           tblptrl	equ	0xFF6
  1930                           tablat	equ	0xFF5
  1931                           postinc0	equ	0xFEE
  1932                           wreg	equ	0xFE8
  1933                           status	equ	0xFD8
  1934                           
  1935 ;; *************** function _ECAN_Transmit *****************
  1936 ;; Defined at:
  1937 ;;		line 154 in file "main.c"
  1938 ;; Parameters:    Size  Location     Type
  1939 ;;		None
  1940 ;; Auto vars:     Size  Location     Type
  1941 ;;		None
  1942 ;; Return value:  Size  Location     Type
  1943 ;;		None               void
  1944 ;; Registers used:
  1945 ;;		wreg, status,2
  1946 ;; Tracked objects:
  1947 ;;		On entry : 0/0
  1948 ;;		On exit  : 0/0
  1949 ;;		Unchanged: 0/0
  1950 ;; Data sizes:     COMRAM   BANK0   BANK1   BANK2
  1951 ;;      Params:         0       0       0       0
  1952 ;;      Locals:         0       0       0       0
  1953 ;;      Temps:          0       0       0       0
  1954 ;;      Totals:         0       0       0       0
  1955 ;;Total ram usage:        0 bytes
  1956 ;; Hardware stack levels used:    1
  1957 ;; This function calls:
  1958 ;;		Nothing
  1959 ;; This function is called by:
  1960 ;;		_main
  1961 ;; This function uses a non-reentrant model
  1962 ;;
  1963                           
  1964                           	psect	text13
  1965  000826                     __ptext13:
  1966                           	opt stack 0
  1967  000826                     _ECAN_Transmit:
  1968                           	opt stack 30
  1969                           
  1970                           ;main.c: 157: TXB0EIDH = 0x00;
  1971                           
  1972                           ; BSR set to: 15
  1973                           ;incstack = 0
  1974  000826  0E00               	movlw	0
  1975  000828  010F               	movlb	15	; () banked
  1976  00082A  6F43               	movwf	67,b	;volatile
  1977                           
  1978                           ;main.c: 158: TXB0EIDL = 0x00;
  1979  00082C  0E00               	movlw	0
  1980  00082E  010F               	movlb	15	; () banked
  1981  000830  6F44               	movwf	68,b	;volatile
  1982                           
  1983                           ;main.c: 159: TXB0SIDH = 0x55;
  1984  000832  0E55               	movlw	85
  1985  000834  010F               	movlb	15	; () banked
  1986  000836  6F41               	movwf	65,b	;volatile
  1987                           
  1988                           ;main.c: 160: TXB0SIDL = 0x00;
  1989  000838  0E00               	movlw	0
  1990  00083A  010F               	movlb	15	; () banked
  1991  00083C  6F42               	movwf	66,b	;volatile
  1992                           
  1993                           ;main.c: 163: CAN_TX_Adress_H = 0x32;
  1994  00083E  0E32               	movlw	50
  1995  000840  6E38               	movwf	_CAN_TX_Adress_H,c
  1996                           
  1997                           ;main.c: 164: CAN_TX_Adress_L = 0xC0;
  1998  000842  0EC0               	movlw	192
  1999  000844  6E39               	movwf	_CAN_TX_Adress_L,c
  2000                           
  2001                           ; BSR set to: 15
  2002                           ;main.c: 168: TXB0CONbits.TXREQ = 0;
  2003  000846  010F               	movlb	15	; () banked
  2004  000848  9740               	bcf	64,3,b	;volatile
  2005                           
  2006                           ;main.c: 173: TXB0DLC = 0x01;
  2007  00084A  0E01               	movlw	1
  2008  00084C  010F               	movlb	15	; () banked
  2009  00084E  6F45               	movwf	69,b	;volatile
  2010                           
  2011                           ; BSR set to: 15
  2012                           ;main.c: 176: TXB0D0 = temperature;
  2013  000850  C047  FF46         	movff	_temperature,3910	;volatile
  2014                           
  2015                           ;main.c: 179: TXB0D1=0XAA;
  2016  000854  0EAA               	movlw	170
  2017  000856  010F               	movlb	15	; () banked
  2018  000858  6F47               	movwf	71,b	;volatile
  2019                           
  2020                           ;main.c: 180: TXB0D2=0X02;
  2021  00085A  0E02               	movlw	2
  2022  00085C  010F               	movlb	15	; () banked
  2023  00085E  6F48               	movwf	72,b	;volatile
  2024                           
  2025                           ;main.c: 181: TXB0D3=0X03;
  2026  000860  0E03               	movlw	3
  2027  000862  010F               	movlb	15	; () banked
  2028  000864  6F49               	movwf	73,b	;volatile
  2029                           
  2030                           ;main.c: 182: TXB0D4=0X04;
  2031  000866  0E04               	movlw	4
  2032  000868  010F               	movlb	15	; () banked
  2033  00086A  6F4A               	movwf	74,b	;volatile
  2034                           
  2035                           ;main.c: 183: TXB0D5=0X05;
  2036  00086C  0E05               	movlw	5
  2037  00086E  010F               	movlb	15	; () banked
  2038  000870  6F4B               	movwf	75,b	;volatile
  2039                           
  2040                           ;main.c: 184: TXB0D6=0X06;
  2041  000872  0E06               	movlw	6
  2042  000874  010F               	movlb	15	; () banked
  2043  000876  6F4C               	movwf	76,b	;volatile
  2044                           
  2045                           ;main.c: 185: TXB0D7=0X07;
  2046  000878  0E07               	movlw	7
  2047  00087A  010F               	movlb	15	; () banked
  2048  00087C  6F4D               	movwf	77,b	;volatile
  2049                           
  2050                           ; BSR set to: 15
  2051                           ;main.c: 187: TXB0CONbits.TXREQ = 1;
  2052  00087E  010F               	movlb	15	; () banked
  2053  000880  8740               	bsf	64,3,b	;volatile
  2054                           
  2055                           ; BSR set to: 15
  2056  000882  0012               	return		;funcret
  2057  000884                     __end_of_ECAN_Transmit:
  2058                           	opt stack 0
  2059                           tblptru	equ	0xFF8
  2060                           tblptrh	equ	0xFF7
  2061                           tblptrl	equ	0xFF6
  2062                           tablat	equ	0xFF5
  2063                           postinc0	equ	0xFEE
  2064                           wreg	equ	0xFE8
  2065                           status	equ	0xFD8
  2066                           
  2067 ;; *************** function _Delay *****************
  2068 ;; Defined at:
  2069 ;;		line 196 in file "main.c"
  2070 ;; Parameters:    Size  Location     Type
  2071 ;;  count           2    0[COMRAM] unsigned int 
  2072 ;; Auto vars:     Size  Location     Type
  2073 ;;		None
  2074 ;; Return value:  Size  Location     Type
  2075 ;;		None               void
  2076 ;; Registers used:
  2077 ;;		wreg, status,2, status,0
  2078 ;; Tracked objects:
  2079 ;;		On entry : 0/0
  2080 ;;		On exit  : 0/0
  2081 ;;		Unchanged: 0/0
  2082 ;; Data sizes:     COMRAM   BANK0   BANK1   BANK2
  2083 ;;      Params:         2       0       0       0
  2084 ;;      Locals:         0       0       0       0
  2085 ;;      Temps:          0       0       0       0
  2086 ;;      Totals:         2       0       0       0
  2087 ;;Total ram usage:        2 bytes
  2088 ;; Hardware stack levels used:    1
  2089 ;; This function calls:
  2090 ;;		Nothing
  2091 ;; This function is called by:
  2092 ;;		_main
  2093 ;; This function uses a non-reentrant model
  2094 ;;
  2095                           
  2096                           	psect	text14
  2097  000952                     __ptext14:
  2098                           	opt stack 0
  2099  000952                     _Delay:
  2100                           	opt stack 30
  2101  000952                     l1307:
  2102  000952  0601               	decf	Delay@count,f,c
  2103  000954  A0D8               	btfss	status,0,c
  2104  000956  0602               	decf	Delay@count+1,f,c
  2105  000958  2801               	incf	Delay@count,w,c
  2106  00095A  E1FB               	bnz	l1307
  2107  00095C  2802               	incf	Delay@count+1,w,c
  2108  00095E  B4D8               	btfsc	status,2,c
  2109  000960  0012               	return	
  2110  000962  D7F7               	goto	l1307
  2111  000964                     __end_of_Delay:
  2112                           	opt stack 0
  2113                           tblptru	equ	0xFF8
  2114                           tblptrh	equ	0xFF7
  2115                           tblptrl	equ	0xFF6
  2116                           tablat	equ	0xFF5
  2117                           postinc0	equ	0xFEE
  2118                           wreg	equ	0xFE8
  2119                           status	equ	0xFD8
  2120                           tblptru	equ	0xFF8
  2121                           tblptrh	equ	0xFF7
  2122                           tblptrl	equ	0xFF6
  2123                           tablat	equ	0xFF5
  2124                           postinc0	equ	0xFEE
  2125                           wreg	equ	0xFE8
  2126                           status	equ	0xFD8
  2127                           
  2128                           	psect	rparam
  2129  0000                     tblptru	equ	0xFF8
  2130                           tblptrh	equ	0xFF7
  2131                           tblptrl	equ	0xFF6
  2132                           tablat	equ	0xFF5
  2133                           postinc0	equ	0xFEE
  2134                           wreg	equ	0xFE8
  2135                           status	equ	0xFD8


Data Sizes:
    Strings     31
    Constant    0
    Data        0
    BSS         20
    Persistent  0
    Stack       0

Auto Spaces:
    Space          Size  Autos    Used
    COMRAM           95     51      71
    BANK0           160      0       0
    BANK1           256      0       0
    BANK2           256      0       0

Pointer List with Targets:

    printf@f	PTR const unsigned char  size(2) Largest target is 26
		 -> STR_2(CODE[26]), STR_1(CODE[5]), 

    printf@ap	PTR void [1] size(2) Largest target is 2
		 -> ?_printf(COMRAM[2]), 


Critical Paths under _main in COMRAM

    _main->___ftdiv
    _printf->_putch
    ___lwtoft->___ftpack
    ___ftmul->___lwtoft
    ___ftdiv->___ftmul

Critical Paths under _main in BANK0

    None.

Critical Paths under _main in BANK1

    None.

Critical Paths under _main in BANK2

    None.

Call Graph Tables:

 ---------------------------------------------------------------------------------
 (Depth) Function   	        Calls       Base Space   Used Autos Params    Refs
 ---------------------------------------------------------------------------------
 (0) _main                                                10    10      0    8117
                                             41 COMRAM    10    10      0
                              _Delay
                      _ECAN_Transmit
                         _InitDevice
                            ___ftdiv
                            ___ftmul
                            ___fttol
                           ___lwtoft
                    _adc_read_sensor
                             _printf
                              _putch
 ---------------------------------------------------------------------------------
 (1) _printf                                              18    16      2     189
                                              1 COMRAM     5     3      2
                              _putch
 ---------------------------------------------------------------------------------
 (1) _putch                                                1     1      0      15
                                              0 COMRAM     1     1      0
 ---------------------------------------------------------------------------------
 (1) _adc_read_sensor                                      6     4      2      23
                                              0 COMRAM     6     4      2
 ---------------------------------------------------------------------------------
 (1) ___lwtoft                                             3     0      3    2117
                                              8 COMRAM     3     0      3
                           ___ftpack
 ---------------------------------------------------------------------------------
 (1) ___fttol                                             15    11      4     316
                                              0 COMRAM    15    11      4
 ---------------------------------------------------------------------------------
 (1) ___ftmul                                             15     9      6    2587
                                             11 COMRAM    15     9      6
                           ___ftpack
                           ___lwtoft (ARG)
 ---------------------------------------------------------------------------------
 (1) ___ftdiv                                             15     9      6    2669
                                             26 COMRAM    15     9      6
                            ___ftmul (ARG)
                           ___ftpack
                           ___lwtoft (ARG)
 ---------------------------------------------------------------------------------
 (2) ___ftpack                                             8     3      5    2031
                                              0 COMRAM     8     3      5
 ---------------------------------------------------------------------------------
 (1) _InitDevice                                           0     0      0       0
                           _InitECAN
                           _InitUART
                           _adc_init
 ---------------------------------------------------------------------------------
 (2) _adc_init                                             0     0      0       0
 ---------------------------------------------------------------------------------
 (2) _InitUART                                             0     0      0       0
 ---------------------------------------------------------------------------------
 (2) _InitECAN                                             0     0      0       0
 ---------------------------------------------------------------------------------
 (1) _ECAN_Transmit                                        0     0      0       0
 ---------------------------------------------------------------------------------
 (1) _Delay                                                2     0      2      86
                                              0 COMRAM     2     0      2
 ---------------------------------------------------------------------------------
 Estimated maximum stack depth 2
 ---------------------------------------------------------------------------------

 Call Graph Graphs:

 _main (ROOT)
   _Delay
   _ECAN_Transmit
   _InitDevice
     _InitECAN
     _InitUART
     _adc_init
   ___ftdiv
     ___ftmul (ARG)
       ___ftpack
       ___lwtoft (ARG)
         ___ftpack
     ___ftpack (ARG)
     ___lwtoft (ARG)
       ___ftpack
   ___ftmul
     ___ftpack
     ___lwtoft (ARG)
       ___ftpack
   ___fttol
   ___lwtoft
     ___ftpack
   _adc_read_sensor
   _printf
     _putch
   _putch

 Address spaces:
Name               Size   Autos  Total    Cost      Usage
BIGRAM             2FF      0       0      10        0.0%
EEDATA             100      0       0       0        0.0%
BITBANK2           100      0       0       7        0.0%
BANK2              100      0       0       8        0.0%
BITBANK1           100      0       0       5        0.0%
BANK1              100      0       0       6        0.0%
BITBANK0            A0      0       0       3        0.0%
BANK0               A0      0       0       4        0.0%
BITCOMRAM           5F      0       0       0        0.0%
COMRAM              5F     33      47       1       74.7%
BITSFR_3             0      0       0      40        0.0%
SFR_3                0      0       0      40        0.0%
BITSFR_2             0      0       0      40        0.0%
SFR_2                0      0       0      40        0.0%
BITSFR_1             0      0       0      40        0.0%
SFR_1                0      0       0      40        0.0%
BITSFR               0      0       0      40        0.0%
SFR                  0      0       0      40        0.0%
STACK                0      0       0       2        0.0%
NULL                 0      0       0       0        0.0%
ABS                  0      0      47       9        0.0%
DATA                 0      0      47      11        0.0%
CODE                 0      0       0       0        0.0%


Microchip Technology PIC18 Macro Assembler V1.35 build -356382666 
Symbol Table                                                                                   Wed Feb 10 13:48:15 2016

             __CFG_BORV$0 000000              __CFG_CP0$OFF 000000              __CFG_CP1$OFF 000000  
             __CFG_LVP$ON 000000                       l305 0978                       l314 08DC  
                     l172 0816                       l169 0792                       l610 06AE  
                     l552 076E              __CFG_CPB$OFF 000000                       u511 060A  
            __CFG_CPD$OFF 000000                       u531 0632                       u621 0332  
                     u640 036C                       u561 0426                       u581 044E  
                     u645 0364                       wreg 000FE8              ___ftdiv@cntr 0024  
                    _B0D0 000E26                      _B0D1 000E27                      _B0D2 000E28  
                    _B0D3 000E29                      _B0D4 000E2A                      _B0D5 000E2B  
                    _B0D6 000E2C                      _B0D7 000E2D              ___ftdiv@sign 0029  
            __CFG_WDT$OFF 000000                      l1321 064A                      l1307 0952  
                    l1315 0622                      l1341 0688                      l1271 073C  
                    l1263 06FE                      l1431 03C4                      l1273 075A  
                    l1265 0708                      l1361 043E                      l1441 03EE  
                    l1409 034E                      l1275 0764                      l1267 0726  
                    l1259 06F0                      l1427 03B4                      l1381 0498  
                    l1445 0404                      l1437 03DC                      l1293 08BA  
                    l1391 04C0                      l1367 0466                      l1439 03E8  
                    l1295 08C0                      l1385 04A8                      l1465 0534  
                    l1395 04D0                      l1475 05D8                      l1479 05E8  
                    STR_1 031B                      STR_2 0301              __CFG_PWRT$ON 000000  
                    _main 050A              ___ftpack@arg 0001              ___ftpack@exp 0004  
                    start 0000             __CFG_IESO$OFF 000000               main@voltage 002A  
            ___ftmul@cntr 0019              ___param_bank 000010              ___ftmul@sign 001A  
        ?_adc_read_sensor 0001              ___fttol@exp1 000F              ___fttol@lval 000B  
                   _B0DLC 000E25                     ?_main 0001           __end_of___ftdiv 06E0  
         __end_of___ftmul 050A           __end_of___fttol 0416                     _SPBRG 000FAF  
                   _TXREG 000FAD                     _Delay 0952             __CFG_WRT0$OFF 000000  
           __CFG_WRT1$OFF 000000            __CFG_EBTR0$OFF 000000            __CFG_FCMEN$OFF 000000  
          __CFG_EBTR1$OFF 000000             __CFG_WRTB$OFF 000000             __CFG_WRTC$OFF 000000  
           __CFG_WRTD$OFF 000000            __CFG_EBTRB$OFF 000000             ___ftpack@sign 0005  
                   _putch 0972                     main@i 0032            __CFG_BOREN$OFF 000000  
                   tablat 000FF5                     status 000FD8                _InitDevice 0884  
          __CFG_MCLRE$OFF 000000           __initialization 0924              __end_of_main 05FA  
        __end_of_InitECAN 0826          __end_of_InitUART 0952                    ??_main 002A  
           ___fttol@sign1 000A             __activetblptr 000001                    ?_Delay 0001  
                  _B0EIDH 000E23                    _B0EIDL 000E24                    _B0SIDH 000E21  
                  _B0SIDL 000E22                    _ADCON0 000FC2                    _ADCON1 000FC1  
                  _ADCON2 000FC0                    _CANCON 000F6F                    _ADRESH 000FC4  
                  _ADRESL 000FC3           __CFG_BBSIZ$1024 000000                    ?_putch 0001  
        __end_of___ftpack 078E          __end_of_adc_init 0972          __end_of___lwtoft 0924  
                  _RXB0D0 000F66                    _RXB0D1 000F67                    _RXB0D2 000F68  
                  _RXB0D3 000F69                    _RXB0D4 000F6A                    _RXB1D0 000F56  
                  _RXB0D5 000F6B                    _RXB1D1 000F57                    _RXB0D6 000F6C  
                  _RXB1D2 000F58                    _RXB0D7 000F6D                    _RXB1D3 000F59  
                  _RXB1D4 000F5A                    _RXB1D5 000F5B                    _RXB1D6 000F5C  
                  _RXB1D7 000F5D                    _RXB1IF 007D21                    _TXB0D0 000F46  
                  _TXB0D1 000F47                    _TXB0D2 000F48                    _TXB0D3 000F49  
                  _TXB0D4 000F4A                    _TXB0D5 000F4B                    _TXB0D6 000F4C  
                  _TXB0D7 000F4D            __CFG_XINST$OFF 000000            __CFG_STVREN$ON 000000  
               ??___ftdiv 0021                 ??___ftmul 0012                 ??___fttol 0005  
                  clear_0 092A                    _printf 08B0     ___ftmul@f3_as_product 0016  
            __mediumconst 0000                    tblptrh 000FF7                    tblptrl 000FF6  
                  tblptru 000FF8                __accesstop 0060   __end_of__initialization 0930  
         __CFG_PBADEN$OFF 000000             ___rparam_used 000001                ___ftdiv@f1 001B  
              ___ftdiv@f2 001E                ___ftdiv@f3 0025               ?_InitDevice 0001  
           __end_of_Delay 0964                ___ftmul@f1 000C                ___ftmul@f2 000F  
              ___fttol@f1 0001            __pcstackCOMRAM 0001    __size_of_ECAN_Transmit 005E  
           __end_of_putch 097E                ___lwtoft@c 0009                   ??_Delay 0003  
                 ??_putch 0001                 ?_InitECAN 0001                 ?_InitUART 0001  
               _B0CONbits 000E20                   _ECANCON 000F77                   _CANSTAT 000F6E  
               ?___ftpack 0001                   ?_printf 0002                 ?_adc_init 0001  
                 _BRGCON1 000F70                   _BRGCON2 000F71                   _BRGCON3 000F72  
               ?___lwtoft 0009       __size_of_InitDevice 002C                   _RXB0DLC 000F65  
                 _RXB1DLC 000F55                   _RXB0CON 000F60                   _RXB1CON 000F50  
                 _TXB0DLC 000F45                   _RXFCON0 000DD4                   _RXFCON1 000DD5  
           _ECAN_Transmit 0826                ??_InitECAN 0001                ??_InitUART 0001  
                 __Hparam 0000                   __Lparam 0000                   ___ftdiv 05FA  
                 ___ftmul 0416                   ___fttol 0322              __psmallconst 0300  
                 __pcinit 0924                ??___ftpack 0006                   __ramtop 0300  
              ??_adc_init 0001                   __ptext0 050A                   __ptext1 08B0  
                 __ptext2 0972                   __ptext3 08DA                   __ptext4 0900  
                 __ptext5 0322                   __ptext6 0416                   __ptext7 05FA  
                 __ptext8 06E0                   __ptext9 0884           __size_of_printf 002A  
              ??___lwtoft 000C  __size_of_adc_read_sensor 0026                   _temp_D0 003A  
                 _temp_D1 003B                   _temp_D2 003C                   _temp_D3 003D  
                 _temp_D4 003E                   _temp_D5 003F                   _temp_D6 0040  
                 _temp_D7 0041                   main@ADR 0030            ?_ECAN_Transmit 0001  
    end_of_initialization 0930                 _RCSTAbits 000FAB                   printf@c 0006  
                 printf@f 0002                   postinc0 000FEE                 _TRISAbits 000F92  
               _TRISBbits 000F93                 _TRISCbits 000F94               ___ftdiv@exp 0028  
               _TXSTAbits 000FAC              ??_InitDevice 0001               ___ftmul@exp 0015  
             _BAUDCONbits 000FB8            __end_of_printf 08DA       start_initialization 0924  
         ??_ECAN_Transmit 0001        __end_of_InitDevice 08B0         ??_adc_read_sensor 0003  
        __CFG_OSC$IRCIO67 000000         __size_of_InitECAN 0098         __size_of_InitUART 0014  
        __CFG_LPT1OSC$OFF 000000                  ??_printf 0004         __size_of___ftpack 00AE  
       __size_of_adc_init 000E               __pbssCOMRAM 0034         __size_of___lwtoft 0024  
                ?___ftdiv 001B                  ?___ftmul 000C                  ?___fttol 0001  
          _heartbeatCount 0034               __smallconst 0300            __size_of_Delay 0012  
   adc_read_sensor@result 0005            __size_of_putch 000C                  _LATAbits 000F89  
               _temp_EIDH 0043                 _temp_EIDL 0044                 _temp_SIDH 0045  
               _temp_SIDL 0046                  _RXB0EIDH 000F63                  _RXB0EIDL 000F64  
                _RXB1EIDH 000F53                  _RXB1EIDL 000F54          __CFG_WDTPS$32768 000000  
                _RXB0SIDH 000F61                  _RXB0SIDL 000F62                  _RXF0EIDH 000F02  
                _RXB1SIDH 000F51                  _RXF0EIDL 000F03                  _RXB1SIDL 000F52  
                _RXF2EIDH 000F0A                  _RXF2EIDL 000F0B                  _RXF0SIDH 000F00  
                _RXF0SIDL 000F01                  _TXB0EIDH 000F43                  _TXB0EIDL 000F44  
                _RXF2SIDH 000F08                  _RXF2SIDL 000F09                  _RXM0EIDH 000F1A  
                _RXM0EIDL 000F1B                  _TXB0SIDH 000F41                  _RXM1EIDH 000F1E  
                _TXB0SIDL 000F42                  _RXM1EIDL 000F1F                  _RXM0SIDH 000F18  
                _RXM0SIDL 000F19                  _RXM1SIDH 000F1C                  _RXM1SIDL 000F1D  
              _ADCON0bits 000FC2                _ADCON1bits 000FC1                  _InitECAN 078E  
                _InitUART 093E                  __Hrparam 0000           _CAN_RX_Adress_H 0036  
         _CAN_RX_Adress_L 0037                  __Lrparam 0000              __Lsmallconst 0300  
              _CIOCONbits 000F73          __size_of___ftdiv 00E6          __size_of___ftmul 00F4  
        __size_of___fttol 00F4                  ___ftpack 06E0           _adc_read_sensor 08DA  
                _adc_init 0964                  ___lwtoft 0900           _CAN_TX_Adress_H 0038  
         _CAN_TX_Adress_L 0039                  __ptext10 0964                  __ptext11 093E  
                __ptext12 078E                  __ptext13 0826                  __ptext14 0952  
           __size_of_main 00F0                  _temp_DLC 0042                  main@temp 002D  
              Delay@count 0001               _RXB0CONbits 000F60               _RXB1CONbits 000F50  
               putch@byte 0001               _OSCTUNEbits 000F9B     __end_of_ECAN_Transmit 0884  
             _TXB0CONbits 000F40                _OSCCONbits 000FD3   __end_of_adc_read_sensor 0900  
                printf@ap 0004               _temperature 0047  
